

Microchip MPLAB XC8 Assembler V2.32 build 20210201212658 
                                                                                               Tue Nov 23 11:29:14 2021

Microchip MPLAB XC8 C Compiler v2.32 (Free license) build 20210201212658 Og1 
     1                           	processor	16F877A
     2                           	pagewidth 120
     3                           	opt	flic
     4                           	psect	idataBANK1,global,class=CODE,delta=2,noexec
     5                           	psect	cinit,global,class=CODE,merge=1,delta=2
     6                           	psect	dataBANK1,global,class=BANK1,space=1,delta=1,noexec
     7                           	psect	cstackBANK1,global,class=BANK1,space=1,delta=1,noexec
     8                           	psect	cstackCOMMON,global,class=COMMON,space=1,delta=1,noexec
     9                           	psect	cstackBANK0,global,class=BANK0,space=1,delta=1,noexec
    10                           	psect	maintext,global,class=CODE,split=1,delta=2
    11                           	psect	text1,local,class=CODE,merge=1,delta=2
    12                           	psect	text2,local,class=CODE,merge=1,delta=2
    13                           	psect	text3,local,class=CODE,merge=1,delta=2,group=1
    14                           	psect	text4,local,class=CODE,merge=1,delta=2,group=1
    15                           	psect	text5,local,class=CODE,merge=1,delta=2,group=1
    16                           	psect	text6,local,class=CODE,merge=1,delta=2,group=1
    17                           	psect	text7,local,class=CODE,merge=1,delta=2,group=1
    18                           	psect	text8,local,class=CODE,merge=1,delta=2,group=1
    19                           	psect	text9,local,class=CODE,merge=1,delta=2
    20                           	psect	text10,local,class=CODE,merge=1,delta=2
    21                           	psect	config,global,abs,ovrld,class=CONFIG,space=4,delta=2,noexec
    22                           	dabs	1,0x7E,2
    23  0000                     
    24                           ; Version 2.20
    25                           ; Generated 12/02/2020 GMT
    26                           ; 
    27                           ; Copyright © 2020, Microchip Technology Inc. and its subsidiaries ("Microchip")
    28                           ; All rights reserved.
    29                           ; 
    30                           ; This software is developed by Microchip Technology Inc. and its subsidiaries ("Microch
      +                          ip").
    31                           ; 
    32                           ; Redistribution and use in source and binary forms, with or without modification, are
    33                           ; permitted provided that the following conditions are met:
    34                           ; 
    35                           ;     1. Redistributions of source code must retain the above copyright notice, this lis
      +                          t of
    36                           ;        conditions and the following disclaimer.
    37                           ; 
    38                           ;     2. Redistributions in binary form must reproduce the above copyright notice, this 
      +                          list
    39                           ;        of conditions and the following disclaimer in the documentation and/or other
    40                           ;        materials provided with the distribution.
    41                           ; 
    42                           ;     3. Microchip's name may not be used to endorse or promote products derived from th
      +                          is
    43                           ;        software without specific prior written permission.
    44                           ; 
    45                           ; THIS SOFTWARE IS PROVIDED BY MICROCHIP "AS IS" AND ANY EXPRESS OR IMPLIED WARRANTIES,
    46                           ; INCLUDING, BUT NOT LIMITED TO, THE IMPLIED WARRANTIES OF MERCHANTABILITY AND FITNESS F
      +                          OR
    47                           ; PURPOSE ARE DISCLAIMED.  IN NO EVENT SHALL MICROCHIP BE LIABLE FOR ANY DIRECT, INDIREC
      +                          T,
    48                           ; INCIDENTAL, SPECIAL, EXEMPLARY, OR CONSEQUENTIAL DAMAGES (INCLUDING BUT NOT LIMITED TO
    49                           ; PROCUREMENT OF SUBSTITUTE GOODS OR SERVICES; LOSS OF USE, DATA OR PROFITS; OR BUSINESS
    50                           ; INTERRUPTION) HOWSOEVER CAUSED AND ON ANY THEORY OF LIABILITY, WHETHER IN CONTRACT, ST
      +                          RICT
    51                           ; LIABILITY, OR TORT (INCLUDING NEGLIGENCE OR OTHERWISE) ARISING IN ANY WAY OUT OF THE U
      +                          SE OF
    52                           ; THIS SOFTWARE, EVEN IF ADVISED OF THE POSSIBILITY OF SUCH DAMAGE.
    53                           ; 
    54                           ; 
    55                           ; Code-generator required, PIC16F877A Definitions
    56                           ; 
    57                           ; SFR Addresses
    58  0000                     	;# 
    59  0001                     	;# 
    60  0002                     	;# 
    61  0003                     	;# 
    62  0004                     	;# 
    63  0005                     	;# 
    64  0006                     	;# 
    65  0007                     	;# 
    66  0008                     	;# 
    67  0009                     	;# 
    68  000A                     	;# 
    69  000B                     	;# 
    70  000C                     	;# 
    71  000D                     	;# 
    72  000E                     	;# 
    73  000E                     	;# 
    74  000F                     	;# 
    75  0010                     	;# 
    76  0011                     	;# 
    77  0012                     	;# 
    78  0013                     	;# 
    79  0014                     	;# 
    80  0015                     	;# 
    81  0015                     	;# 
    82  0016                     	;# 
    83  0017                     	;# 
    84  0018                     	;# 
    85  0019                     	;# 
    86  001A                     	;# 
    87  001B                     	;# 
    88  001B                     	;# 
    89  001C                     	;# 
    90  001D                     	;# 
    91  001E                     	;# 
    92  001F                     	;# 
    93  0081                     	;# 
    94  0085                     	;# 
    95  0086                     	;# 
    96  0087                     	;# 
    97  0088                     	;# 
    98  0089                     	;# 
    99  008C                     	;# 
   100  008D                     	;# 
   101  008E                     	;# 
   102  0091                     	;# 
   103  0092                     	;# 
   104  0093                     	;# 
   105  0094                     	;# 
   106  0098                     	;# 
   107  0099                     	;# 
   108  009C                     	;# 
   109  009D                     	;# 
   110  009E                     	;# 
   111  009F                     	;# 
   112  010C                     	;# 
   113  010D                     	;# 
   114  010E                     	;# 
   115  010F                     	;# 
   116  018C                     	;# 
   117  018D                     	;# 
   118  0000                     	;# 
   119  0001                     	;# 
   120  0002                     	;# 
   121  0003                     	;# 
   122  0004                     	;# 
   123  0005                     	;# 
   124  0006                     	;# 
   125  0007                     	;# 
   126  0008                     	;# 
   127  0009                     	;# 
   128  000A                     	;# 
   129  000B                     	;# 
   130  000C                     	;# 
   131  000D                     	;# 
   132  000E                     	;# 
   133  000E                     	;# 
   134  000F                     	;# 
   135  0010                     	;# 
   136  0011                     	;# 
   137  0012                     	;# 
   138  0013                     	;# 
   139  0014                     	;# 
   140  0015                     	;# 
   141  0015                     	;# 
   142  0016                     	;# 
   143  0017                     	;# 
   144  0018                     	;# 
   145  0019                     	;# 
   146  001A                     	;# 
   147  001B                     	;# 
   148  001B                     	;# 
   149  001C                     	;# 
   150  001D                     	;# 
   151  001E                     	;# 
   152  001F                     	;# 
   153  0081                     	;# 
   154  0085                     	;# 
   155  0086                     	;# 
   156  0087                     	;# 
   157  0088                     	;# 
   158  0089                     	;# 
   159  008C                     	;# 
   160  008D                     	;# 
   161  008E                     	;# 
   162  0091                     	;# 
   163  0092                     	;# 
   164  0093                     	;# 
   165  0094                     	;# 
   166  0098                     	;# 
   167  0099                     	;# 
   168  009C                     	;# 
   169  009D                     	;# 
   170  009E                     	;# 
   171  009F                     	;# 
   172  010C                     	;# 
   173  010D                     	;# 
   174  010E                     	;# 
   175  010F                     	;# 
   176  018C                     	;# 
   177  018D                     	;# 
   178                           
   179                           	psect	idataBANK1
   180  0006                     __pidataBANK1:
   181                           
   182                           ;initializer for _PWM_freq
   183  0006  3488               	retlw	136
   184  0007  3413               	retlw	19
   185  0008  3400               	retlw	0
   186  0009  3400               	retlw	0
   187  001E                     _ADRESH	set	30
   188  001F                     _ADCON0	set	31
   189  0015                     _CCPR1L	set	21
   190  00FA                     _GO_nDONE	set	250
   191  00BC                     _CCP1Y	set	188
   192  00BD                     _CCP1X	set	189
   193  0092                     _TMR2ON	set	146
   194  0091                     _T2CKPS1	set	145
   195  0090                     _T2CKPS0	set	144
   196  00BA                     _CCP1M2	set	186
   197  00BB                     _CCP1M3	set	187
   198  0088                     _TRISD	set	136
   199  0085                     _TRISA	set	133
   200  0087                     _TRISC	set	135
   201  009E                     _ADRESL	set	158
   202  009F                     _ADCON1	set	159
   203  0092                     _PR2	set	146
   204  043A                     _TRISC2	set	1082
   205                           
   206                           	psect	cinit
   207  07E2                     start_initialization:	
   208                           ; #config settings
   209                           
   210  07E2                     __initialization:
   211                           
   212                           ; Initialize objects allocated to BANK1
   213  07E2  1683               	bsf	3,5	;RP0=1, select bank1
   214  07E3  1303               	bcf	3,6	;RP1=0, select bank1
   215  07E4  120A  118A  2006  120A  118A  	fcall	__pidataBANK1	;fetch initializer
   216  07E9  00AB               	movwf	__pdataBANK1& (0+127)
   217  07EA  120A  118A  2007  120A  118A  	fcall	__pidataBANK1+1	;fetch initializer
   218  07EF  00AC               	movwf	(__pdataBANK1+1)& (0+127)
   219  07F0  120A  118A  2008  120A  118A  	fcall	__pidataBANK1+2	;fetch initializer
   220  07F5  00AD               	movwf	(__pdataBANK1+2)& (0+127)
   221  07F6  120A  118A  2009  120A  118A  	fcall	__pidataBANK1+3	;fetch initializer
   222  07FB  00AE               	movwf	(__pdataBANK1+3)& (0+127)
   223  07FC                     end_of_initialization:	
   224                           ;End of C runtime variable initialization code
   225                           
   226  07FC                     __end_of__initialization:
   227  07FC  0183               	clrf	3
   228  07FD  120A  158A  2F88   	ljmp	_main	;jump to C main() function
   229                           
   230                           	psect	dataBANK1
   231  00AB                     __pdataBANK1:
   232  00AB                     _PWM_freq:
   233  00AB                     	ds	4
   234                           
   235                           	psect	cstackBANK1
   236  00A0                     __pcstackBANK1:
   237  00A0                     ?_PWM_Duty:
   238  00A0                     PWM_Duty@duty:	
   239                           ; 2 bytes @ 0x0
   240                           
   241                           
   242                           ; 2 bytes @ 0x0
   243  00A0                     	ds	2
   244  00A2                     ??_PWM_Duty:
   245                           
   246                           ; 1 bytes @ 0x2
   247  00A2                     	ds	4
   248  00A6                     ??_main:
   249                           
   250                           ; 1 bytes @ 0x6
   251  00A6                     	ds	3
   252  00A9                     main@adc_value:
   253                           
   254                           ; 2 bytes @ 0x9
   255  00A9                     	ds	2
   256                           
   257                           	psect	cstackCOMMON
   258  0070                     __pcstackCOMMON:
   259  0070                     ?_ADC_Initialize:
   260  0070                     ??_ADC_Initialize:	
   261                           ; 1 bytes @ 0x0
   262                           
   263  0070                     ?_main:	
   264                           ; 1 bytes @ 0x0
   265                           
   266  0070                     ?__Umul8_16:	
   267                           ; 1 bytes @ 0x0
   268                           
   269  0070                     ?_PWM_Initialize:	
   270                           ; 2 bytes @ 0x0
   271                           
   272  0070                     ?_ADC_Read:	
   273                           ; 2 bytes @ 0x0
   274                           
   275  0070                     ?___aldiv:	
   276                           ; 2 bytes @ 0x0
   277                           
   278  0070                     __Umul8_16@multiplicand:	
   279                           ; 4 bytes @ 0x0
   280                           
   281  0070                     ___aldiv@divisor:	
   282                           ; 1 bytes @ 0x0
   283                           
   284                           
   285                           ; 4 bytes @ 0x0
   286  0070                     	ds	2
   287  0072                     ??__Umul8_16:
   288  0072                     ??_ADC_Read:	
   289                           ; 1 bytes @ 0x2
   290                           
   291                           
   292                           ; 1 bytes @ 0x2
   293  0072                     	ds	2
   294  0074                     ADC_Read@channel:
   295  0074                     __Umul8_16@product:	
   296                           ; 1 bytes @ 0x4
   297                           
   298  0074                     ___aldiv@dividend:	
   299                           ; 2 bytes @ 0x4
   300                           
   301                           
   302                           ; 4 bytes @ 0x4
   303  0074                     	ds	2
   304  0076                     __Umul8_16@word_mpld:
   305                           
   306                           ; 2 bytes @ 0x6
   307  0076                     	ds	2
   308  0078                     ??___aldiv:
   309  0078                     __Umul8_16@multiplier:	
   310                           ; 1 bytes @ 0x8
   311                           
   312                           
   313                           ; 1 bytes @ 0x8
   314  0078                     	ds	1
   315  0079                     ??_PWM_Initialize:
   316  0079                     ??___xxtofl:	
   317                           ; 1 bytes @ 0x9
   318                           
   319                           
   320                           ; 1 bytes @ 0x9
   321  0079                     	ds	4
   322                           
   323                           	psect	cstackBANK0
   324  0020                     __pcstackBANK0:
   325  0020                     ___aldiv@counter:
   326                           
   327                           ; 1 bytes @ 0x0
   328  0020                     	ds	1
   329  0021                     ___aldiv@sign:
   330                           
   331                           ; 1 bytes @ 0x1
   332  0021                     	ds	1
   333  0022                     ___aldiv@quotient:
   334                           
   335                           ; 4 bytes @ 0x2
   336  0022                     	ds	4
   337  0026                     ?___xxtofl:
   338  0026                     ___xxtofl@val:	
   339                           ; 4 bytes @ 0x6
   340                           
   341                           
   342                           ; 4 bytes @ 0x6
   343  0026                     	ds	4
   344  002A                     ___xxtofl@sign:
   345                           
   346                           ; 1 bytes @ 0xA
   347  002A                     	ds	1
   348  002B                     ___xxtofl@exp:
   349                           
   350                           ; 1 bytes @ 0xB
   351  002B                     	ds	1
   352  002C                     ___xxtofl@arg:
   353                           
   354                           ; 4 bytes @ 0xC
   355  002C                     	ds	4
   356  0030                     ?___fldiv:
   357  0030                     ___fldiv@a:	
   358                           ; 4 bytes @ 0x10
   359                           
   360                           
   361                           ; 4 bytes @ 0x10
   362  0030                     	ds	4
   363  0034                     ___fldiv@b:
   364                           
   365                           ; 4 bytes @ 0x14
   366  0034                     	ds	4
   367  0038                     ??___fldiv:
   368                           
   369                           ; 1 bytes @ 0x18
   370  0038                     	ds	5
   371  003D                     ___fldiv@rem:
   372                           
   373                           ; 4 bytes @ 0x1D
   374  003D                     	ds	4
   375  0041                     ___fldiv@sign:
   376                           
   377                           ; 1 bytes @ 0x21
   378  0041                     	ds	1
   379  0042                     ___fldiv@new_exp:
   380                           
   381                           ; 2 bytes @ 0x22
   382  0042                     	ds	2
   383  0044                     ___fldiv@grs:
   384                           
   385                           ; 4 bytes @ 0x24
   386  0044                     	ds	4
   387  0048                     ___fldiv@bexp:
   388                           
   389                           ; 1 bytes @ 0x28
   390  0048                     	ds	1
   391  0049                     ___fldiv@aexp:
   392                           
   393                           ; 1 bytes @ 0x29
   394  0049                     	ds	1
   395  004A                     ?___flmul:
   396  004A                     ___flmul@b:	
   397                           ; 4 bytes @ 0x2A
   398                           
   399                           
   400                           ; 4 bytes @ 0x2A
   401  004A                     	ds	4
   402  004E                     ___flmul@a:
   403                           
   404                           ; 4 bytes @ 0x2E
   405  004E                     	ds	4
   406  0052                     ??___flmul:
   407                           
   408                           ; 1 bytes @ 0x32
   409  0052                     	ds	5
   410  0057                     ___flmul@sign:
   411                           
   412                           ; 1 bytes @ 0x37
   413  0057                     	ds	1
   414  0058                     ___flmul@grs:
   415                           
   416                           ; 4 bytes @ 0x38
   417  0058                     	ds	4
   418  005C                     ___flmul@aexp:
   419                           
   420                           ; 1 bytes @ 0x3C
   421  005C                     	ds	1
   422  005D                     ___flmul@bexp:
   423                           
   424                           ; 1 bytes @ 0x3D
   425  005D                     	ds	1
   426  005E                     ___flmul@prod:
   427                           
   428                           ; 4 bytes @ 0x3E
   429  005E                     	ds	4
   430  0062                     ___flmul@temp:
   431                           
   432                           ; 2 bytes @ 0x42
   433  0062                     	ds	2
   434  0064                     ?___fltol:
   435  0064                     ___fltol@f1:	
   436                           ; 4 bytes @ 0x44
   437                           
   438                           
   439                           ; 4 bytes @ 0x44
   440  0064                     	ds	4
   441  0068                     ??___fltol:
   442                           
   443                           ; 1 bytes @ 0x48
   444  0068                     	ds	5
   445  006D                     ___fltol@sign1:
   446                           
   447                           ; 1 bytes @ 0x4D
   448  006D                     	ds	1
   449  006E                     ___fltol@exp1:
   450                           
   451                           ; 1 bytes @ 0x4E
   452  006E                     	ds	1
   453                           
   454                           	psect	maintext
   455  0F88                     __pmaintext:	
   456 ;;
   457 ;;Main: autosize = 0, tempsize = 3, incstack = 0, save=0
   458 ;;
   459 ;; *************** function _main *****************
   460 ;; Defined at:
   461 ;;		line 53 in file "newmain.c"
   462 ;; Parameters:    Size  Location     Type
   463 ;;		None
   464 ;; Auto vars:     Size  Location     Type
   465 ;;  adc_value       2    9[BANK1 ] int 
   466 ;; Return value:  Size  Location     Type
   467 ;;                  1    wreg      void 
   468 ;; Registers used:
   469 ;;		wreg, status,2, status,0, btemp+1, pclath, cstack
   470 ;; Tracked objects:
   471 ;;		On entry : B00/0
   472 ;;		On exit  : 0/0
   473 ;;		Unchanged: 0/0
   474 ;; Data sizes:     COMMON   BANK0   BANK1   BANK3   BANK2
   475 ;;      Params:         0       0       0       0       0
   476 ;;      Locals:         0       0       2       0       0
   477 ;;      Temps:          0       0       3       0       0
   478 ;;      Totals:         0       0       5       0       0
   479 ;;Total ram usage:        5 bytes
   480 ;; Hardware stack levels required when called: 3
   481 ;; This function calls:
   482 ;;		_ADC_Initialize
   483 ;;		_ADC_Read
   484 ;;		_PWM_Duty
   485 ;;		_PWM_Initialize
   486 ;; This function is called by:
   487 ;;		Startup code after reset
   488 ;; This function uses a non-reentrant model
   489 ;;
   490                           
   491                           
   492                           ;psect for function _main
   493  0F88                     _main:
   494  0F88                     l1575:	
   495                           ;incstack = 0
   496                           ; Regs used in _main: [wreg+status,2+status,0+btemp+1+pclath+cstack]
   497                           
   498                           
   499                           ;newmain.c: 55:     int adc_value;;newmain.c: 56:   TRISC = 0x00;
   500  0F88  1683               	bsf	3,5	;RP0=1, select bank1
   501  0F89  1303               	bcf	3,6	;RP1=0, select bank1
   502  0F8A  0187               	clrf	7	;volatile
   503  0F8B                     l1577:
   504                           
   505                           ;newmain.c: 57:   TRISA = 0xFF;
   506  0F8B  30FF               	movlw	255
   507  0F8C  0085               	movwf	5	;volatile
   508  0F8D                     l1579:
   509                           
   510                           ;newmain.c: 58:   TRISD = 0x00;
   511  0F8D  0188               	clrf	8	;volatile
   512  0F8E                     l1581:
   513                           
   514                           ;newmain.c: 59:   ADC_Initialize();
   515  0F8E  120A  118A  200A  120A  158A  	fcall	_ADC_Initialize
   516  0F93                     l1583:
   517                           
   518                           ;newmain.c: 60:   PWM_Initialize();
   519  0F93  120A  158A  27BF  120A  158A  	fcall	_PWM_Initialize
   520  0F98                     l1585:
   521                           
   522                           ;newmain.c: 63:   {;newmain.c: 64:     adc_value = ADC_Read(4);
   523  0F98  3004               	movlw	4
   524  0F99  120A  158A  275D  120A  158A  	fcall	_ADC_Read
   525  0F9E  0871               	movf	?_ADC_Read+1,w
   526  0F9F  1683               	bsf	3,5	;RP0=1, select bank1
   527  0FA0  1303               	bcf	3,6	;RP1=0, select bank1
   528  0FA1  00AA               	movwf	(main@adc_value+1)^(0+128)
   529  0FA2  0870               	movf	?_ADC_Read,w
   530  0FA3  00A9               	movwf	main@adc_value^(0+128)
   531  0FA4                     l1587:
   532                           
   533                           ;newmain.c: 65:     PWM_Duty(adc_value);
   534  0FA4  082A               	movf	(main@adc_value+1)^(0+128),w
   535  0FA5  00A1               	movwf	(PWM_Duty@duty+1)^(0+128)
   536  0FA6  0829               	movf	main@adc_value^(0+128),w
   537  0FA7  00A0               	movwf	PWM_Duty@duty^(0+128)
   538  0FA8  120A  118A  21E8  120A  158A  	fcall	_PWM_Duty
   539  0FAD                     l1589:
   540                           
   541                           ;newmain.c: 67:       _delay((unsigned long)((50)*(20000000/4000.0)));
   542  0FAD  3002               	movlw	2
   543  0FAE  1683               	bsf	3,5	;RP0=1, select bank1
   544  0FAF  1303               	bcf	3,6	;RP1=0, select bank1
   545  0FB0  00A8               	movwf	(??_main^(0+128)+2)
   546  0FB1  3045               	movlw	69
   547  0FB2  00A7               	movwf	(??_main^(0+128)+1)
   548  0FB3  30A9               	movlw	169
   549  0FB4  00A6               	movwf	??_main^(0+128)
   550  0FB5                     u2237:
   551  0FB5  0BA6               	decfsz	??_main^(0+128),f
   552  0FB6  2FB5               	goto	u2237
   553  0FB7  0BA7               	decfsz	(??_main^(0+128)+1),f
   554  0FB8  2FB5               	goto	u2237
   555  0FB9  0BA8               	decfsz	(??_main^(0+128)+2),f
   556  0FBA  2FB5               	goto	u2237
   557                           
   558                           ;newmain.c: 69:   }while(1);
   559  0FBB  2F98               	goto	l1585
   560  0FBC  120A  118A  2800   	ljmp	start
   561  0FBF                     __end_of_main:
   562                           
   563                           	psect	text1
   564  0FBF                     __ptext1:	
   565 ;; *************** function _PWM_Initialize *****************
   566 ;; Defined at:
   567 ;;		line 18 in file "newmain.c"
   568 ;; Parameters:    Size  Location     Type
   569 ;;		None
   570 ;; Auto vars:     Size  Location     Type
   571 ;;		None
   572 ;; Return value:  Size  Location     Type
   573 ;;                  2   42[None  ] int 
   574 ;; Registers used:
   575 ;;		wreg, status,2, status,0, pclath, cstack
   576 ;; Tracked objects:
   577 ;;		On entry : 0/0
   578 ;;		On exit  : 0/0
   579 ;;		Unchanged: 0/0
   580 ;; Data sizes:     COMMON   BANK0   BANK1   BANK3   BANK2
   581 ;;      Params:         0       0       0       0       0
   582 ;;      Locals:         0       0       0       0       0
   583 ;;      Temps:          4       0       0       0       0
   584 ;;      Totals:         4       0       0       0       0
   585 ;;Total ram usage:        4 bytes
   586 ;; Hardware stack levels used: 1
   587 ;; Hardware stack levels required when called: 1
   588 ;; This function calls:
   589 ;;		___aldiv
   590 ;; This function is called by:
   591 ;;		_main
   592 ;; This function uses a non-reentrant model
   593 ;;
   594                           
   595                           
   596                           ;psect for function _PWM_Initialize
   597  0FBF                     _PWM_Initialize:
   598  0FBF                     l1539:	
   599                           ;incstack = 0
   600                           ; Regs used in _PWM_Initialize: [wreg+status,2+status,0+pclath+cstack]
   601                           
   602                           
   603                           ;newmain.c: 20:   PR2 = (20000000/(PWM_freq*4*4)) - 1;
   604  0FBF  1683               	bsf	3,5	;RP0=1, select bank1
   605  0FC0  1303               	bcf	3,6	;RP1=0, select bank1
   606  0FC1  082B               	movf	_PWM_freq^(0+128),w
   607  0FC2  00F9               	movwf	??_PWM_Initialize
   608  0FC3  082C               	movf	(_PWM_freq+1)^(0+128),w
   609  0FC4  00FA               	movwf	??_PWM_Initialize+1
   610  0FC5  082D               	movf	(_PWM_freq+2)^(0+128),w
   611  0FC6  00FB               	movwf	??_PWM_Initialize+2
   612  0FC7  082E               	movf	(_PWM_freq+3)^(0+128),w
   613  0FC8  00FC               	movwf	??_PWM_Initialize+3
   614  0FC9  3002               	movlw	2
   615  0FCA                     u2155:
   616  0FCA  1003               	clrc
   617  0FCB  0DF9               	rlf	??_PWM_Initialize,f
   618  0FCC  0DFA               	rlf	??_PWM_Initialize+1,f
   619  0FCD  0DFB               	rlf	??_PWM_Initialize+2,f
   620  0FCE  0DFC               	rlf	??_PWM_Initialize+3,f
   621  0FCF                     u2150:
   622  0FCF  3EFF               	addlw	-1
   623  0FD0  1D03               	skipz
   624  0FD1  2FCA               	goto	u2155
   625  0FD2  3002               	movlw	2
   626  0FD3                     u2165:
   627  0FD3  1003               	clrc
   628  0FD4  0DF9               	rlf	??_PWM_Initialize,f
   629  0FD5  0DFA               	rlf	??_PWM_Initialize+1,f
   630  0FD6  0DFB               	rlf	??_PWM_Initialize+2,f
   631  0FD7  0DFC               	rlf	??_PWM_Initialize+3,f
   632  0FD8                     u2160:
   633  0FD8  3EFF               	addlw	-1
   634  0FD9  1D03               	skipz
   635  0FDA  2FD3               	goto	u2165
   636  0FDB  087C               	movf	??_PWM_Initialize+3,w
   637  0FDC  00F3               	movwf	___aldiv@divisor+3
   638  0FDD  087B               	movf	??_PWM_Initialize+2,w
   639  0FDE  00F2               	movwf	___aldiv@divisor+2
   640  0FDF  087A               	movf	??_PWM_Initialize+1,w
   641  0FE0  00F1               	movwf	___aldiv@divisor+1
   642  0FE1  0879               	movf	??_PWM_Initialize,w
   643  0FE2  00F0               	movwf	___aldiv@divisor
   644  0FE3  3001               	movlw	1
   645  0FE4  00F7               	movwf	___aldiv@dividend+3
   646  0FE5  3031               	movlw	49
   647  0FE6  00F6               	movwf	___aldiv@dividend+2
   648  0FE7  302D               	movlw	45
   649  0FE8  00F5               	movwf	___aldiv@dividend+1
   650  0FE9  3000               	movlw	0
   651  0FEA  00F4               	movwf	___aldiv@dividend
   652  0FEB  120A  118A  208F  120A  158A  	fcall	___aldiv
   653  0FF0  0870               	movf	?___aldiv,w
   654  0FF1  3EFF               	addlw	255
   655  0FF2  1683               	bsf	3,5	;RP0=1, select bank1
   656  0FF3  1303               	bcf	3,6	;RP1=0, select bank1
   657  0FF4  0092               	movwf	18	;volatile
   658  0FF5                     l1541:
   659                           
   660                           ;newmain.c: 21:     CCP1M3 = 1; CCP1M2 = 1;
   661  0FF5  1283               	bcf	3,5	;RP0=0, select bank0
   662  0FF6  1303               	bcf	3,6	;RP1=0, select bank0
   663  0FF7  1597               	bsf	23,3	;volatile
   664  0FF8                     l1543:
   665  0FF8  1517               	bsf	23,2	;volatile
   666  0FF9                     l1545:
   667                           
   668                           ;newmain.c: 22:     T2CKPS0 = 1;T2CKPS1 = 0; TMR2ON = 1;
   669  0FF9  1412               	bsf	18,0	;volatile
   670  0FFA                     l1547:
   671  0FFA  1092               	bcf	18,1	;volatile
   672  0FFB                     l1549:
   673  0FFB  1512               	bsf	18,2	;volatile
   674  0FFC                     l1551:
   675                           
   676                           ;newmain.c: 23:     TRISC2 = 0;
   677  0FFC  1683               	bsf	3,5	;RP0=1, select bank1
   678  0FFD  1303               	bcf	3,6	;RP1=0, select bank1
   679  0FFE  1107               	bcf	7,2	;volatile
   680  0FFF                     l43:
   681  0FFF  0008               	return
   682  1000                     __end_of_PWM_Initialize:
   683                           
   684                           	psect	text2
   685  01E8                     __ptext2:	
   686 ;; *************** function _PWM_Duty *****************
   687 ;; Defined at:
   688 ;;		line 26 in file "newmain.c"
   689 ;; Parameters:    Size  Location     Type
   690 ;;  duty            2    0[BANK1 ] unsigned int 
   691 ;; Auto vars:     Size  Location     Type
   692 ;;		None
   693 ;; Return value:  Size  Location     Type
   694 ;;                  2    0[BANK1 ] int 
   695 ;; Registers used:
   696 ;;		wreg, status,2, status,0, btemp+1, pclath, cstack
   697 ;; Tracked objects:
   698 ;;		On entry : 0/0
   699 ;;		On exit  : 0/0
   700 ;;		Unchanged: 0/0
   701 ;; Data sizes:     COMMON   BANK0   BANK1   BANK3   BANK2
   702 ;;      Params:         0       0       2       0       0
   703 ;;      Locals:         0       0       0       0       0
   704 ;;      Temps:          0       0       4       0       0
   705 ;;      Totals:         0       0       6       0       0
   706 ;;Total ram usage:        6 bytes
   707 ;; Hardware stack levels used: 1
   708 ;; Hardware stack levels required when called: 2
   709 ;; This function calls:
   710 ;;		___aldiv
   711 ;;		___fldiv
   712 ;;		___flmul
   713 ;;		___fltol
   714 ;;		___xxtofl
   715 ;; This function is called by:
   716 ;;		_main
   717 ;; This function uses a non-reentrant model
   718 ;;
   719                           
   720                           
   721                           ;psect for function _PWM_Duty
   722  01E8                     _PWM_Duty:
   723  01E8                     l1553:	
   724                           ;incstack = 0
   725                           ; Regs used in _PWM_Duty: [wreg+status,2+status,0+btemp+1+pclath+cstack]
   726                           
   727                           
   728                           ;newmain.c: 26: PWM_Duty(unsigned int duty);newmain.c: 27: {;newmain.c: 28:       if(dut
      +                          y<1023)
   729  01E8  3003               	movlw	3
   730  01E9  1683               	bsf	3,5	;RP0=1, select bank1
   731  01EA  1303               	bcf	3,6	;RP1=0, select bank1
   732  01EB  0221               	subwf	(PWM_Duty@duty+1)^(0+128),w
   733  01EC  30FF               	movlw	255
   734  01ED  1903               	skipnz
   735  01EE  0220               	subwf	PWM_Duty@duty^(0+128),w
   736  01EF  1803               	skipnc
   737  01F0  29F2               	goto	u2171
   738  01F1  29F3               	goto	u2170
   739  01F2                     u2171:
   740  01F2  2AA3               	goto	l47
   741  01F3                     u2170:
   742  01F3                     l1555:
   743                           
   744                           ;newmain.c: 29:   {;newmain.c: 31:     duty = ((float)duty/1023)*(20000000/(PWM_freq*4))
      +                          ;
   745  01F3  0820               	movf	PWM_Duty@duty^(0+128),w
   746  01F4  1283               	bcf	3,5	;RP0=0, select bank0
   747  01F5  1303               	bcf	3,6	;RP1=0, select bank0
   748  01F6  00A6               	movwf	___xxtofl@val
   749  01F7  1683               	bsf	3,5	;RP0=1, select bank1
   750  01F8  1303               	bcf	3,6	;RP1=0, select bank1
   751  01F9  0821               	movf	(PWM_Duty@duty+1)^(0+128),w
   752  01FA  1283               	bcf	3,5	;RP0=0, select bank0
   753  01FB  1303               	bcf	3,6	;RP1=0, select bank0
   754  01FC  00A7               	movwf	___xxtofl@val+1
   755  01FD  01A8               	clrf	___xxtofl@val+2
   756  01FE  01A9               	clrf	___xxtofl@val+3
   757  01FF  3000               	movlw	0
   758  0200  120A  118A  212C  120A  118A  	fcall	___xxtofl
   759  0205  1283               	bcf	3,5	;RP0=0, select bank0
   760  0206  1303               	bcf	3,6	;RP1=0, select bank0
   761  0207  0829               	movf	?___xxtofl+3,w
   762  0208  00B7               	movwf	___fldiv@b+3
   763  0209  0828               	movf	?___xxtofl+2,w
   764  020A  00B6               	movwf	___fldiv@b+2
   765  020B  0827               	movf	?___xxtofl+1,w
   766  020C  00B5               	movwf	___fldiv@b+1
   767  020D  0826               	movf	?___xxtofl,w
   768  020E  00B4               	movwf	___fldiv@b
   769  020F  3044               	movlw	68
   770  0210  00B3               	movwf	___fldiv@a+3
   771  0211  307F               	movlw	127
   772  0212  00B2               	movwf	___fldiv@a+2
   773  0213  30C0               	movlw	192
   774  0214  00B1               	movwf	___fldiv@a+1
   775  0215  3000               	movlw	0
   776  0216  00B0               	movwf	___fldiv@a
   777  0217  120A  118A  22A4  120A  118A  	fcall	___fldiv
   778  021C  1283               	bcf	3,5	;RP0=0, select bank0
   779  021D  1303               	bcf	3,6	;RP1=0, select bank0
   780  021E  0833               	movf	?___fldiv+3,w
   781  021F  00D1               	movwf	___flmul@a+3
   782  0220  0832               	movf	?___fldiv+2,w
   783  0221  00D0               	movwf	___flmul@a+2
   784  0222  0831               	movf	?___fldiv+1,w
   785  0223  00CF               	movwf	___flmul@a+1
   786  0224  0830               	movf	?___fldiv,w
   787  0225  00CE               	movwf	___flmul@a
   788  0226  3001               	movlw	1
   789  0227  00F7               	movwf	___aldiv@dividend+3
   790  0228  3031               	movlw	49
   791  0229  00F6               	movwf	___aldiv@dividend+2
   792  022A  302D               	movlw	45
   793  022B  00F5               	movwf	___aldiv@dividend+1
   794  022C  3000               	movlw	0
   795  022D  00F4               	movwf	___aldiv@dividend
   796  022E  1683               	bsf	3,5	;RP0=1, select bank1
   797  022F  1303               	bcf	3,6	;RP1=0, select bank1
   798  0230  082B               	movf	_PWM_freq^(0+128),w
   799  0231  00A2               	movwf	??_PWM_Duty^(0+128)
   800  0232  082C               	movf	(_PWM_freq+1)^(0+128),w
   801  0233  00A3               	movwf	(??_PWM_Duty^(0+128)+1)
   802  0234  082D               	movf	(_PWM_freq+2)^(0+128),w
   803  0235  00A4               	movwf	(??_PWM_Duty^(0+128)+2)
   804  0236  082E               	movf	(_PWM_freq+3)^(0+128),w
   805  0237  00A5               	movwf	(??_PWM_Duty^(0+128)+3)
   806  0238  3002               	movlw	2
   807  0239                     u2185:
   808  0239  1003               	clrc
   809  023A  0DA2               	rlf	??_PWM_Duty^(0+128),f
   810  023B  0DA3               	rlf	(??_PWM_Duty^(0+128)+1),f
   811  023C  0DA4               	rlf	(??_PWM_Duty^(0+128)+2),f
   812  023D  0DA5               	rlf	(??_PWM_Duty^(0+128)+3),f
   813  023E                     u2180:
   814  023E  3EFF               	addlw	-1
   815  023F  1D03               	skipz
   816  0240  2A39               	goto	u2185
   817  0241  0825               	movf	(??_PWM_Duty+3)^(0+128),w
   818  0242  00F3               	movwf	___aldiv@divisor+3
   819  0243  0824               	movf	(??_PWM_Duty+2)^(0+128),w
   820  0244  00F2               	movwf	___aldiv@divisor+2
   821  0245  0823               	movf	(??_PWM_Duty+1)^(0+128),w
   822  0246  00F1               	movwf	___aldiv@divisor+1
   823  0247  0822               	movf	??_PWM_Duty^(0+128),w
   824  0248  00F0               	movwf	___aldiv@divisor
   825  0249  120A  118A  208F  120A  118A  	fcall	___aldiv
   826  024E  0873               	movf	?___aldiv+3,w
   827  024F  1283               	bcf	3,5	;RP0=0, select bank0
   828  0250  1303               	bcf	3,6	;RP1=0, select bank0
   829  0251  00A9               	movwf	___xxtofl@val+3
   830  0252  0872               	movf	?___aldiv+2,w
   831  0253  00A8               	movwf	___xxtofl@val+2
   832  0254  0871               	movf	?___aldiv+1,w
   833  0255  00A7               	movwf	___xxtofl@val+1
   834  0256  0870               	movf	?___aldiv,w
   835  0257  00A6               	movwf	___xxtofl@val
   836  0258  3001               	movlw	1
   837  0259  120A  118A  212C  120A  118A  	fcall	___xxtofl
   838  025E  1283               	bcf	3,5	;RP0=0, select bank0
   839  025F  1303               	bcf	3,6	;RP1=0, select bank0
   840  0260  0829               	movf	?___xxtofl+3,w
   841  0261  00CD               	movwf	___flmul@b+3
   842  0262  0828               	movf	?___xxtofl+2,w
   843  0263  00CC               	movwf	___flmul@b+2
   844  0264  0827               	movf	?___xxtofl+1,w
   845  0265  00CB               	movwf	___flmul@b+1
   846  0266  0826               	movf	?___xxtofl,w
   847  0267  00CA               	movwf	___flmul@b
   848  0268  120A  118A  2481  120A  118A  	fcall	___flmul
   849  026D  1283               	bcf	3,5	;RP0=0, select bank0
   850  026E  1303               	bcf	3,6	;RP1=0, select bank0
   851  026F  084D               	movf	?___flmul+3,w
   852  0270  00E7               	movwf	___fltol@f1+3
   853  0271  084C               	movf	?___flmul+2,w
   854  0272  00E6               	movwf	___fltol@f1+2
   855  0273  084B               	movf	?___flmul+1,w
   856  0274  00E5               	movwf	___fltol@f1+1
   857  0275  084A               	movf	?___flmul,w
   858  0276  00E4               	movwf	___fltol@f1
   859  0277  120A  118A  2013  120A  118A  	fcall	___fltol
   860  027C  1283               	bcf	3,5	;RP0=0, select bank0
   861  027D  1303               	bcf	3,6	;RP1=0, select bank0
   862  027E  0865               	movf	?___fltol+1,w
   863  027F  1683               	bsf	3,5	;RP0=1, select bank1
   864  0280  1303               	bcf	3,6	;RP1=0, select bank1
   865  0281  00A1               	movwf	(PWM_Duty@duty+1)^(0+128)
   866  0282  1283               	bcf	3,5	;RP0=0, select bank0
   867  0283  1303               	bcf	3,6	;RP1=0, select bank0
   868  0284  0864               	movf	?___fltol,w
   869  0285  1683               	bsf	3,5	;RP0=1, select bank1
   870  0286  1303               	bcf	3,6	;RP1=0, select bank1
   871  0287  00A0               	movwf	PWM_Duty@duty^(0+128)
   872  0288                     l1557:
   873                           
   874                           ;newmain.c: 32:     CCP1X = duty & 1;
   875  0288  1820               	btfsc	PWM_Duty@duty^(0+128),0
   876  0289  2A8B               	goto	u2191
   877  028A  2A8F               	goto	u2190
   878  028B                     u2191:
   879  028B  1283               	bcf	3,5	;RP0=0, select bank0
   880  028C  1303               	bcf	3,6	;RP1=0, select bank0
   881  028D  1697               	bsf	23,5	;volatile
   882  028E  2A92               	goto	u2204
   883  028F                     u2190:
   884  028F  1283               	bcf	3,5	;RP0=0, select bank0
   885  0290  1303               	bcf	3,6	;RP1=0, select bank0
   886  0291  1297               	bcf	23,5	;volatile
   887  0292                     u2204:
   888  0292                     l1559:
   889                           
   890                           ;newmain.c: 33:     CCP1Y = duty & 2;
   891  0292  1217               	bcf	23,4	;volatile
   892  0293                     l1561:
   893                           
   894                           ;newmain.c: 34:     CCPR1L = duty>>2;
   895  0293  1683               	bsf	3,5	;RP0=1, select bank1
   896  0294  1303               	bcf	3,6	;RP1=0, select bank1
   897  0295  0821               	movf	(PWM_Duty@duty+1)^(0+128),w
   898  0296  00A3               	movwf	(??_PWM_Duty^(0+128)+1)
   899  0297  0820               	movf	PWM_Duty@duty^(0+128),w
   900  0298  00A2               	movwf	??_PWM_Duty^(0+128)
   901  0299  1003               	clrc
   902  029A  0CA3               	rrf	(??_PWM_Duty^(0+128)+1),f
   903  029B  0CA2               	rrf	??_PWM_Duty^(0+128),f
   904  029C  1003               	clrc
   905  029D  0CA3               	rrf	(??_PWM_Duty^(0+128)+1),f
   906  029E  0CA2               	rrf	??_PWM_Duty^(0+128),f
   907  029F  0822               	movf	??_PWM_Duty^(0+128),w
   908  02A0  1283               	bcf	3,5	;RP0=0, select bank0
   909  02A1  1303               	bcf	3,6	;RP1=0, select bank0
   910  02A2  0095               	movwf	21	;volatile
   911  02A3                     l47:
   912  02A3  0008               	return
   913  02A4                     __end_of_PWM_Duty:
   914                           
   915                           	psect	text3
   916  012C                     __ptext3:	
   917 ;; *************** function ___xxtofl *****************
   918 ;; Defined at:
   919 ;;		line 10 in file "C:\Program Files\Microchip\xc8\v2.32\pic\sources\c90\common\xxtofl.c"
   920 ;; Parameters:    Size  Location     Type
   921 ;;  sign            1    wreg     unsigned char 
   922 ;;  val             4    6[BANK0 ] long 
   923 ;; Auto vars:     Size  Location     Type
   924 ;;  sign            1   10[BANK0 ] unsigned char 
   925 ;;  arg             4   12[BANK0 ] unsigned long 
   926 ;;  exp             1   11[BANK0 ] unsigned char 
   927 ;; Return value:  Size  Location     Type
   928 ;;                  4    6[BANK0 ] unsigned char 
   929 ;; Registers used:
   930 ;;		wreg, status,2, status,0
   931 ;; Tracked objects:
   932 ;;		On entry : 0/0
   933 ;;		On exit  : 0/0
   934 ;;		Unchanged: 0/0
   935 ;; Data sizes:     COMMON   BANK0   BANK1   BANK3   BANK2
   936 ;;      Params:         0       4       0       0       0
   937 ;;      Locals:         0       6       0       0       0
   938 ;;      Temps:          4       0       0       0       0
   939 ;;      Totals:         4      10       0       0       0
   940 ;;Total ram usage:       14 bytes
   941 ;; Hardware stack levels used: 1
   942 ;; This function calls:
   943 ;;		Nothing
   944 ;; This function is called by:
   945 ;;		_PWM_Duty
   946 ;; This function uses a non-reentrant model
   947 ;;
   948                           
   949                           
   950                           ;psect for function ___xxtofl
   951  012C                     ___xxtofl:
   952                           
   953                           ;incstack = 0
   954                           ; Regs used in ___xxtofl: [wreg+status,2+status,0]
   955                           ;___xxtofl@sign stored from wreg
   956  012C  1283               	bcf	3,5	;RP0=0, select bank0
   957  012D  1303               	bcf	3,6	;RP1=0, select bank0
   958  012E  00AA               	movwf	___xxtofl@sign
   959  012F                     l1495:
   960  012F  082A               	movf	___xxtofl@sign,w
   961  0130  1903               	btfsc	3,2
   962  0131  2933               	goto	u2011
   963  0132  2934               	goto	u2010
   964  0133                     u2011:
   965  0133  2948               	goto	l1501
   966  0134                     u2010:
   967  0134                     l1497:
   968  0134  1FA9               	btfss	___xxtofl@val+3,7
   969  0135  2937               	goto	u2021
   970  0136  2938               	goto	u2020
   971  0137                     u2021:
   972  0137  2948               	goto	l1501
   973  0138                     u2020:
   974  0138                     l1499:
   975  0138  0926               	comf	___xxtofl@val,w
   976  0139  00AC               	movwf	___xxtofl@arg
   977  013A  0927               	comf	___xxtofl@val+1,w
   978  013B  00AD               	movwf	___xxtofl@arg+1
   979  013C  0928               	comf	___xxtofl@val+2,w
   980  013D  00AE               	movwf	___xxtofl@arg+2
   981  013E  0929               	comf	___xxtofl@val+3,w
   982  013F  00AF               	movwf	___xxtofl@arg+3
   983  0140  0AAC               	incf	___xxtofl@arg,f
   984  0141  1903               	skipnz
   985  0142  0AAD               	incf	___xxtofl@arg+1,f
   986  0143  1903               	skipnz
   987  0144  0AAE               	incf	___xxtofl@arg+2,f
   988  0145  1903               	skipnz
   989  0146  0AAF               	incf	___xxtofl@arg+3,f
   990  0147  2950               	goto	l582
   991  0148                     l1501:
   992  0148  0829               	movf	___xxtofl@val+3,w
   993  0149  00AF               	movwf	___xxtofl@arg+3
   994  014A  0828               	movf	___xxtofl@val+2,w
   995  014B  00AE               	movwf	___xxtofl@arg+2
   996  014C  0827               	movf	___xxtofl@val+1,w
   997  014D  00AD               	movwf	___xxtofl@arg+1
   998  014E  0826               	movf	___xxtofl@val,w
   999  014F  00AC               	movwf	___xxtofl@arg
  1000  0150                     l582:
  1001  0150  0829               	movf	___xxtofl@val+3,w
  1002  0151  0428               	iorwf	___xxtofl@val+2,w
  1003  0152  0427               	iorwf	___xxtofl@val+1,w
  1004  0153  0426               	iorwf	___xxtofl@val,w
  1005  0154  1D03               	skipz
  1006  0155  2957               	goto	u2031
  1007  0156  2958               	goto	u2030
  1008  0157                     u2031:
  1009  0157  2961               	goto	l1507
  1010  0158                     u2030:
  1011  0158                     l1503:
  1012  0158  3000               	movlw	0
  1013  0159  00A9               	movwf	?___xxtofl+3
  1014  015A  3000               	movlw	0
  1015  015B  00A8               	movwf	?___xxtofl+2
  1016  015C  3000               	movlw	0
  1017  015D  00A7               	movwf	?___xxtofl+1
  1018  015E  3000               	movlw	0
  1019  015F  00A6               	movwf	?___xxtofl
  1020  0160  29E7               	goto	l584
  1021  0161                     l1507:
  1022  0161  3096               	movlw	150
  1023  0162  00F9               	movwf	??___xxtofl
  1024  0163  0879               	movf	??___xxtofl,w
  1025  0164  00AB               	movwf	___xxtofl@exp
  1026  0165  2973               	goto	l1511
  1027  0166                     l1509:
  1028  0166  3001               	movlw	1
  1029  0167  00F9               	movwf	??___xxtofl
  1030  0168  0879               	movf	??___xxtofl,w
  1031  0169  07AB               	addwf	___xxtofl@exp,f
  1032  016A  3001               	movlw	1
  1033  016B                     u2045:
  1034  016B  1003               	clrc
  1035  016C  0CAF               	rrf	___xxtofl@arg+3,f
  1036  016D  0CAE               	rrf	___xxtofl@arg+2,f
  1037  016E  0CAD               	rrf	___xxtofl@arg+1,f
  1038  016F  0CAC               	rrf	___xxtofl@arg,f
  1039  0170  3EFF               	addlw	-1
  1040  0171  1D03               	skipz
  1041  0172  296B               	goto	u2045
  1042  0173                     l1511:
  1043  0173  30FE               	movlw	254
  1044  0174  052F               	andwf	___xxtofl@arg+3,w
  1045  0175  1D03               	btfss	3,2
  1046  0176  2978               	goto	u2051
  1047  0177  2979               	goto	u2050
  1048  0178                     u2051:
  1049  0178  2966               	goto	l1509
  1050  0179                     u2050:
  1051  0179  2995               	goto	l588
  1052  017A                     l1513:
  1053  017A  3001               	movlw	1
  1054  017B  00F9               	movwf	??___xxtofl
  1055  017C  0879               	movf	??___xxtofl,w
  1056  017D  07AB               	addwf	___xxtofl@exp,f
  1057  017E                     l1515:
  1058  017E  3001               	movlw	1
  1059  017F  07AC               	addwf	___xxtofl@arg,f
  1060  0180  3000               	movlw	0
  1061  0181  1803               	skipnc
  1062  0182  3001               	movlw	1
  1063  0183  07AD               	addwf	___xxtofl@arg+1,f
  1064  0184  3000               	movlw	0
  1065  0185  1803               	skipnc
  1066  0186  3001               	movlw	1
  1067  0187  07AE               	addwf	___xxtofl@arg+2,f
  1068  0188  3000               	movlw	0
  1069  0189  1803               	skipnc
  1070  018A  3001               	movlw	1
  1071  018B  07AF               	addwf	___xxtofl@arg+3,f
  1072  018C                     l1517:
  1073  018C  3001               	movlw	1
  1074  018D                     u2065:
  1075  018D  1003               	clrc
  1076  018E  0CAF               	rrf	___xxtofl@arg+3,f
  1077  018F  0CAE               	rrf	___xxtofl@arg+2,f
  1078  0190  0CAD               	rrf	___xxtofl@arg+1,f
  1079  0191  0CAC               	rrf	___xxtofl@arg,f
  1080  0192  3EFF               	addlw	-1
  1081  0193  1D03               	skipz
  1082  0194  298D               	goto	u2065
  1083  0195                     l588:
  1084  0195  30FF               	movlw	255
  1085  0196  052F               	andwf	___xxtofl@arg+3,w
  1086  0197  1D03               	btfss	3,2
  1087  0198  299A               	goto	u2071
  1088  0199  299B               	goto	u2070
  1089  019A                     u2071:
  1090  019A  297A               	goto	l1513
  1091  019B                     u2070:
  1092  019B  29A7               	goto	l1521
  1093  019C                     l1519:
  1094  019C  3001               	movlw	1
  1095  019D  02AB               	subwf	___xxtofl@exp,f
  1096  019E  3001               	movlw	1
  1097  019F  00F9               	movwf	??___xxtofl
  1098  01A0                     u2085:
  1099  01A0  1003               	clrc
  1100  01A1  0DAC               	rlf	___xxtofl@arg,f
  1101  01A2  0DAD               	rlf	___xxtofl@arg+1,f
  1102  01A3  0DAE               	rlf	___xxtofl@arg+2,f
  1103  01A4  0DAF               	rlf	___xxtofl@arg+3,f
  1104  01A5  0BF9               	decfsz	??___xxtofl,f
  1105  01A6  29A0               	goto	u2085
  1106  01A7                     l1521:
  1107  01A7  1BAE               	btfsc	___xxtofl@arg+2,7
  1108  01A8  29AA               	goto	u2091
  1109  01A9  29AB               	goto	u2090
  1110  01AA                     u2091:
  1111  01AA  29B1               	goto	l595
  1112  01AB                     u2090:
  1113  01AB                     l1523:
  1114  01AB  3002               	movlw	2
  1115  01AC  022B               	subwf	___xxtofl@exp,w
  1116  01AD  1803               	skipnc
  1117  01AE  29B0               	goto	u2101
  1118  01AF  29B1               	goto	u2100
  1119  01B0                     u2101:
  1120  01B0  299C               	goto	l1519
  1121  01B1                     u2100:
  1122  01B1                     l595:
  1123  01B1  182B               	btfsc	___xxtofl@exp,0
  1124  01B2  29B4               	goto	u2111
  1125  01B3  29B5               	goto	u2110
  1126  01B4                     u2111:
  1127  01B4  29BD               	goto	l596
  1128  01B5                     u2110:
  1129  01B5                     l1525:
  1130  01B5  30FF               	movlw	255
  1131  01B6  05AC               	andwf	___xxtofl@arg,f
  1132  01B7  30FF               	movlw	255
  1133  01B8  05AD               	andwf	___xxtofl@arg+1,f
  1134  01B9  307F               	movlw	127
  1135  01BA  05AE               	andwf	___xxtofl@arg+2,f
  1136  01BB  30FF               	movlw	255
  1137  01BC  05AF               	andwf	___xxtofl@arg+3,f
  1138  01BD                     l596:
  1139  01BD  1003               	clrc
  1140  01BE  0CAB               	rrf	___xxtofl@exp,f
  1141  01BF                     l1527:
  1142  01BF  082B               	movf	___xxtofl@exp,w
  1143  01C0  00F9               	movwf	??___xxtofl
  1144  01C1  01FA               	clrf	??___xxtofl+1
  1145  01C2  01FB               	clrf	??___xxtofl+2
  1146  01C3  01FC               	clrf	??___xxtofl+3
  1147  01C4  3018               	movlw	24
  1148  01C5                     u2125:
  1149  01C5  1003               	clrc
  1150  01C6  0DF9               	rlf	??___xxtofl,f
  1151  01C7  0DFA               	rlf	??___xxtofl+1,f
  1152  01C8  0DFB               	rlf	??___xxtofl+2,f
  1153  01C9  0DFC               	rlf	??___xxtofl+3,f
  1154  01CA                     u2120:
  1155  01CA  3EFF               	addlw	-1
  1156  01CB  1D03               	skipz
  1157  01CC  29C5               	goto	u2125
  1158  01CD  0879               	movf	??___xxtofl,w
  1159  01CE  04AC               	iorwf	___xxtofl@arg,f
  1160  01CF  087A               	movf	??___xxtofl+1,w
  1161  01D0  04AD               	iorwf	___xxtofl@arg+1,f
  1162  01D1  087B               	movf	??___xxtofl+2,w
  1163  01D2  04AE               	iorwf	___xxtofl@arg+2,f
  1164  01D3  087C               	movf	??___xxtofl+3,w
  1165  01D4  04AF               	iorwf	___xxtofl@arg+3,f
  1166  01D5                     l1529:
  1167  01D5  082A               	movf	___xxtofl@sign,w
  1168  01D6  1903               	btfsc	3,2
  1169  01D7  29D9               	goto	u2131
  1170  01D8  29DA               	goto	u2130
  1171  01D9                     u2131:
  1172  01D9  29DF               	goto	l1535
  1173  01DA                     u2130:
  1174  01DA                     l1531:
  1175  01DA  1FA9               	btfss	___xxtofl@val+3,7
  1176  01DB  29DD               	goto	u2141
  1177  01DC  29DE               	goto	u2140
  1178  01DD                     u2141:
  1179  01DD  29DF               	goto	l1535
  1180  01DE                     u2140:
  1181  01DE                     l1533:
  1182  01DE  17AF               	bsf	___xxtofl@arg+3,7
  1183  01DF                     l1535:
  1184  01DF  082F               	movf	___xxtofl@arg+3,w
  1185  01E0  00A9               	movwf	?___xxtofl+3
  1186  01E1  082E               	movf	___xxtofl@arg+2,w
  1187  01E2  00A8               	movwf	?___xxtofl+2
  1188  01E3  082D               	movf	___xxtofl@arg+1,w
  1189  01E4  00A7               	movwf	?___xxtofl+1
  1190  01E5  082C               	movf	___xxtofl@arg,w
  1191  01E6  00A6               	movwf	?___xxtofl
  1192  01E7                     l584:
  1193  01E7  0008               	return
  1194  01E8                     __end_of___xxtofl:
  1195                           
  1196                           	psect	text4
  1197  0013                     __ptext4:	
  1198 ;; *************** function ___fltol *****************
  1199 ;; Defined at:
  1200 ;;		line 43 in file "C:\Program Files\Microchip\xc8\v2.32\pic\sources\c90\common\fltol.c"
  1201 ;; Parameters:    Size  Location     Type
  1202 ;;  f1              4   68[BANK0 ] unsigned char 
  1203 ;; Auto vars:     Size  Location     Type
  1204 ;;  exp1            1   78[BANK0 ] unsigned char 
  1205 ;;  sign1           1   77[BANK0 ] unsigned char 
  1206 ;; Return value:  Size  Location     Type
  1207 ;;                  4   68[BANK0 ] long 
  1208 ;; Registers used:
  1209 ;;		wreg, status,2, status,0
  1210 ;; Tracked objects:
  1211 ;;		On entry : 0/0
  1212 ;;		On exit  : 0/0
  1213 ;;		Unchanged: 0/0
  1214 ;; Data sizes:     COMMON   BANK0   BANK1   BANK3   BANK2
  1215 ;;      Params:         0       4       0       0       0
  1216 ;;      Locals:         0       2       0       0       0
  1217 ;;      Temps:          0       5       0       0       0
  1218 ;;      Totals:         0      11       0       0       0
  1219 ;;Total ram usage:       11 bytes
  1220 ;; Hardware stack levels used: 1
  1221 ;; This function calls:
  1222 ;;		Nothing
  1223 ;; This function is called by:
  1224 ;;		_PWM_Duty
  1225 ;; This function uses a non-reentrant model
  1226 ;;
  1227                           
  1228                           
  1229                           ;psect for function ___fltol
  1230  0013                     ___fltol:
  1231  0013                     l1177:	
  1232                           ;incstack = 0
  1233                           ; Regs used in ___fltol: [wreg+status,2+status,0]
  1234                           
  1235  0013  1003               	clrc
  1236  0014  1283               	bcf	3,5	;RP0=0, select bank0
  1237  0015  1303               	bcf	3,6	;RP1=0, select bank0
  1238  0016  0D66               	rlf	___fltol@f1+2,w
  1239  0017  0D67               	rlf	___fltol@f1+3,w
  1240  0018  00E8               	movwf	??___fltol
  1241  0019  0868               	movf	??___fltol,w
  1242  001A  00EE               	movwf	___fltol@exp1
  1243  001B  086E               	movf	___fltol@exp1,w
  1244  001C  1D03               	btfss	3,2
  1245  001D  281F               	goto	u1251
  1246  001E  2820               	goto	u1250
  1247  001F                     u1251:
  1248  001F  2829               	goto	l1183
  1249  0020                     u1250:
  1250  0020                     l1179:
  1251  0020  3000               	movlw	0
  1252  0021  00E7               	movwf	?___fltol+3
  1253  0022  3000               	movlw	0
  1254  0023  00E6               	movwf	?___fltol+2
  1255  0024  3000               	movlw	0
  1256  0025  00E5               	movwf	?___fltol+1
  1257  0026  3000               	movlw	0
  1258  0027  00E4               	movwf	?___fltol
  1259  0028  288E               	goto	l335
  1260  0029                     l1183:
  1261  0029  0864               	movf	___fltol@f1,w
  1262  002A  00E8               	movwf	??___fltol
  1263  002B  0865               	movf	___fltol@f1+1,w
  1264  002C  00E9               	movwf	??___fltol+1
  1265  002D  0866               	movf	___fltol@f1+2,w
  1266  002E  00EA               	movwf	??___fltol+2
  1267  002F  0867               	movf	___fltol@f1+3,w
  1268  0030  00EB               	movwf	??___fltol+3
  1269  0031  301F               	movlw	31
  1270  0032                     u1265:
  1271  0032  1003               	clrc
  1272  0033  0CEB               	rrf	??___fltol+3,f
  1273  0034  0CEA               	rrf	??___fltol+2,f
  1274  0035  0CE9               	rrf	??___fltol+1,f
  1275  0036  0CE8               	rrf	??___fltol,f
  1276  0037                     u1260:
  1277  0037  3EFF               	addlw	-1
  1278  0038  1D03               	skipz
  1279  0039  2832               	goto	u1265
  1280  003A  0868               	movf	??___fltol,w
  1281  003B  00EC               	movwf	??___fltol+4
  1282  003C  086C               	movf	??___fltol+4,w
  1283  003D  00ED               	movwf	___fltol@sign1
  1284  003E                     l1185:
  1285  003E  17E6               	bsf	___fltol@f1+2,7
  1286  003F                     l1187:
  1287  003F  30FF               	movlw	255
  1288  0040  05E4               	andwf	___fltol@f1,f
  1289  0041  30FF               	movlw	255
  1290  0042  05E5               	andwf	___fltol@f1+1,f
  1291  0043  30FF               	movlw	255
  1292  0044  05E6               	andwf	___fltol@f1+2,f
  1293  0045  3000               	movlw	0
  1294  0046  05E7               	andwf	___fltol@f1+3,f
  1295  0047                     l1189:
  1296  0047  3096               	movlw	150
  1297  0048  02EE               	subwf	___fltol@exp1,f
  1298  0049                     l1191:
  1299  0049  1FEE               	btfss	___fltol@exp1,7
  1300  004A  284C               	goto	u1271
  1301  004B  284D               	goto	u1270
  1302  004C                     u1271:
  1303  004C  2867               	goto	l1201
  1304  004D                     u1270:
  1305  004D                     l1193:
  1306  004D  086E               	movf	___fltol@exp1,w
  1307  004E  3A80               	xorlw	128
  1308  004F  3E97               	addlw	151
  1309  0050  1803               	skipnc
  1310  0051  2853               	goto	u1281
  1311  0052  2854               	goto	u1280
  1312  0053                     u1281:
  1313  0053  2855               	goto	l1199
  1314  0054                     u1280:
  1315  0054  2820               	goto	l1179
  1316  0055                     l1199:
  1317  0055  3001               	movlw	1
  1318  0056                     u1295:
  1319  0056  1003               	clrc
  1320  0057  0CE7               	rrf	___fltol@f1+3,f
  1321  0058  0CE6               	rrf	___fltol@f1+2,f
  1322  0059  0CE5               	rrf	___fltol@f1+1,f
  1323  005A  0CE4               	rrf	___fltol@f1,f
  1324  005B  3EFF               	addlw	-1
  1325  005C  1D03               	skipz
  1326  005D  2856               	goto	u1295
  1327  005E  3001               	movlw	1
  1328  005F  00E8               	movwf	??___fltol
  1329  0060  0868               	movf	??___fltol,w
  1330  0061  07EE               	addwf	___fltol@exp1,f
  1331  0062  1D03               	btfss	3,2
  1332  0063  2865               	goto	u1301
  1333  0064  2866               	goto	u1300
  1334  0065                     u1301:
  1335  0065  2855               	goto	l1199
  1336  0066                     u1300:
  1337  0066  287E               	goto	l1209
  1338  0067                     l1201:
  1339  0067  3020               	movlw	32
  1340  0068  026E               	subwf	___fltol@exp1,w
  1341  0069  1C03               	skipc
  1342  006A  286C               	goto	u1311
  1343  006B  286D               	goto	u1310
  1344  006C                     u1311:
  1345  006C  2879               	goto	l342
  1346  006D                     u1310:
  1347  006D  2820               	goto	l1179
  1348  006E                     l1207:
  1349  006E  3001               	movlw	1
  1350  006F  00E8               	movwf	??___fltol
  1351  0070                     u1325:
  1352  0070  1003               	clrc
  1353  0071  0DE4               	rlf	___fltol@f1,f
  1354  0072  0DE5               	rlf	___fltol@f1+1,f
  1355  0073  0DE6               	rlf	___fltol@f1+2,f
  1356  0074  0DE7               	rlf	___fltol@f1+3,f
  1357  0075  0BE8               	decfsz	??___fltol,f
  1358  0076  2870               	goto	u1325
  1359  0077  3001               	movlw	1
  1360  0078  02EE               	subwf	___fltol@exp1,f
  1361  0079                     l342:
  1362  0079  086E               	movf	___fltol@exp1,w
  1363  007A  1D03               	btfss	3,2
  1364  007B  287D               	goto	u1331
  1365  007C  287E               	goto	u1330
  1366  007D                     u1331:
  1367  007D  286E               	goto	l1207
  1368  007E                     u1330:
  1369  007E                     l1209:
  1370  007E  086D               	movf	___fltol@sign1,w
  1371  007F  1903               	btfsc	3,2
  1372  0080  2882               	goto	u1341
  1373  0081  2883               	goto	u1340
  1374  0082                     u1341:
  1375  0082  288E               	goto	l345
  1376  0083                     u1340:
  1377  0083                     l1211:
  1378  0083  09E4               	comf	___fltol@f1,f
  1379  0084  09E5               	comf	___fltol@f1+1,f
  1380  0085  09E6               	comf	___fltol@f1+2,f
  1381  0086  09E7               	comf	___fltol@f1+3,f
  1382  0087  0AE4               	incf	___fltol@f1,f
  1383  0088  1903               	skipnz
  1384  0089  0AE5               	incf	___fltol@f1+1,f
  1385  008A  1903               	skipnz
  1386  008B  0AE6               	incf	___fltol@f1+2,f
  1387  008C  1903               	skipnz
  1388  008D  0AE7               	incf	___fltol@f1+3,f
  1389  008E                     l345:
  1390  008E                     l335:
  1391  008E  0008               	return
  1392  008F                     __end_of___fltol:
  1393                           
  1394                           	psect	text5
  1395  0481                     __ptext5:	
  1396 ;; *************** function ___flmul *****************
  1397 ;; Defined at:
  1398 ;;		line 8 in file "C:\Program Files\Microchip\xc8\v2.32\pic\sources\c90\common\sprcmul.c"
  1399 ;; Parameters:    Size  Location     Type
  1400 ;;  b               4   42[BANK0 ] long 
  1401 ;;  a               4   46[BANK0 ] long 
  1402 ;; Auto vars:     Size  Location     Type
  1403 ;;  prod            4   62[BANK0 ] struct .
  1404 ;;  grs             4   56[BANK0 ] unsigned long 
  1405 ;;  temp            2   66[BANK0 ] struct .
  1406 ;;  bexp            1   61[BANK0 ] unsigned char 
  1407 ;;  aexp            1   60[BANK0 ] unsigned char 
  1408 ;;  sign            1   55[BANK0 ] unsigned char 
  1409 ;; Return value:  Size  Location     Type
  1410 ;;                  4   42[BANK0 ] unsigned char 
  1411 ;; Registers used:
  1412 ;;		wreg, status,2, status,0, btemp+1, pclath, cstack
  1413 ;; Tracked objects:
  1414 ;;		On entry : 0/0
  1415 ;;		On exit  : 0/0
  1416 ;;		Unchanged: 0/0
  1417 ;; Data sizes:     COMMON   BANK0   BANK1   BANK3   BANK2
  1418 ;;      Params:         0       8       0       0       0
  1419 ;;      Locals:         0      13       0       0       0
  1420 ;;      Temps:          0       5       0       0       0
  1421 ;;      Totals:         0      26       0       0       0
  1422 ;;Total ram usage:       26 bytes
  1423 ;; Hardware stack levels used: 1
  1424 ;; Hardware stack levels required when called: 1
  1425 ;; This function calls:
  1426 ;;		__Umul8_16
  1427 ;; This function is called by:
  1428 ;;		_PWM_Duty
  1429 ;; This function uses a non-reentrant model
  1430 ;;
  1431                           
  1432                           
  1433                           ;psect for function ___flmul
  1434  0481                     ___flmul:
  1435  0481                     l1355:	
  1436                           ;incstack = 0
  1437                           ; Regs used in ___flmul: [wreg+status,2+status,0+btemp+1+pclath+cstack]
  1438                           
  1439  0481  1283               	bcf	3,5	;RP0=0, select bank0
  1440  0482  1303               	bcf	3,6	;RP1=0, select bank0
  1441  0483  084D               	movf	___flmul@b+3,w
  1442  0484  3980               	andlw	128
  1443  0485  00D2               	movwf	??___flmul
  1444  0486  0852               	movf	??___flmul,w
  1445  0487  00D7               	movwf	___flmul@sign
  1446  0488                     l1357:
  1447  0488  084D               	movf	___flmul@b+3,w
  1448  0489  00D2               	movwf	??___flmul
  1449  048A  0752               	addwf	??___flmul,w
  1450  048B  00D3               	movwf	??___flmul+1
  1451  048C  0853               	movf	??___flmul+1,w
  1452  048D  00DD               	movwf	___flmul@bexp
  1453  048E                     l1359:
  1454  048E  1FCC               	btfss	___flmul@b+2,7
  1455  048F  2C91               	goto	u1641
  1456  0490  2C92               	goto	u1640
  1457  0491                     u1641:
  1458  0491  2C93               	goto	l1363
  1459  0492                     u1640:
  1460  0492                     l1361:
  1461  0492  145D               	bsf	___flmul@bexp,0
  1462  0493                     l1363:
  1463  0493  085D               	movf	___flmul@bexp,w
  1464  0494  1903               	btfsc	3,2
  1465  0495  2C97               	goto	u1651
  1466  0496  2C98               	goto	u1650
  1467  0497                     u1651:
  1468  0497  2CA7               	goto	l1371
  1469  0498                     u1650:
  1470  0498                     l1365:
  1471  0498  0A5D               	incf	___flmul@bexp,w
  1472  0499  1D03               	btfss	3,2
  1473  049A  2C9C               	goto	u1661
  1474  049B  2C9D               	goto	u1660
  1475  049C                     u1661:
  1476  049C  2CA5               	goto	l1369
  1477  049D                     u1660:
  1478  049D                     l1367:
  1479  049D  3000               	movlw	0
  1480  049E  00CD               	movwf	___flmul@b+3
  1481  049F  3000               	movlw	0
  1482  04A0  00CC               	movwf	___flmul@b+2
  1483  04A1  3000               	movlw	0
  1484  04A2  00CB               	movwf	___flmul@b+1
  1485  04A3  3000               	movlw	0
  1486  04A4  00CA               	movwf	___flmul@b
  1487  04A5                     l1369:
  1488  04A5  17CC               	bsf	___flmul@b+2,7
  1489  04A6  2CAF               	goto	l1373
  1490  04A7                     l1371:
  1491  04A7  3000               	movlw	0
  1492  04A8  00CD               	movwf	___flmul@b+3
  1493  04A9  3000               	movlw	0
  1494  04AA  00CC               	movwf	___flmul@b+2
  1495  04AB  3000               	movlw	0
  1496  04AC  00CB               	movwf	___flmul@b+1
  1497  04AD  3000               	movlw	0
  1498  04AE  00CA               	movwf	___flmul@b
  1499  04AF                     l1373:
  1500  04AF  0851               	movf	___flmul@a+3,w
  1501  04B0  3980               	andlw	128
  1502  04B1  00D2               	movwf	??___flmul
  1503  04B2  0852               	movf	??___flmul,w
  1504  04B3  06D7               	xorwf	___flmul@sign,f
  1505  04B4                     l1375:
  1506  04B4  0851               	movf	___flmul@a+3,w
  1507  04B5  00D2               	movwf	??___flmul
  1508  04B6  0752               	addwf	??___flmul,w
  1509  04B7  00D3               	movwf	??___flmul+1
  1510  04B8  0853               	movf	??___flmul+1,w
  1511  04B9  00DC               	movwf	___flmul@aexp
  1512  04BA                     l1377:
  1513  04BA  1FD0               	btfss	___flmul@a+2,7
  1514  04BB  2CBD               	goto	u1671
  1515  04BC  2CBE               	goto	u1670
  1516  04BD                     u1671:
  1517  04BD  2CBF               	goto	l1381
  1518  04BE                     u1670:
  1519  04BE                     l1379:
  1520  04BE  145C               	bsf	___flmul@aexp,0
  1521  04BF                     l1381:
  1522  04BF  085C               	movf	___flmul@aexp,w
  1523  04C0  1903               	btfsc	3,2
  1524  04C1  2CC3               	goto	u1681
  1525  04C2  2CC4               	goto	u1680
  1526  04C3                     u1681:
  1527  04C3  2CD3               	goto	l1389
  1528  04C4                     u1680:
  1529  04C4                     l1383:
  1530  04C4  0A5C               	incf	___flmul@aexp,w
  1531  04C5  1D03               	btfss	3,2
  1532  04C6  2CC8               	goto	u1691
  1533  04C7  2CC9               	goto	u1690
  1534  04C8                     u1691:
  1535  04C8  2CD1               	goto	l1387
  1536  04C9                     u1690:
  1537  04C9                     l1385:
  1538  04C9  3000               	movlw	0
  1539  04CA  00D1               	movwf	___flmul@a+3
  1540  04CB  3000               	movlw	0
  1541  04CC  00D0               	movwf	___flmul@a+2
  1542  04CD  3000               	movlw	0
  1543  04CE  00CF               	movwf	___flmul@a+1
  1544  04CF  3000               	movlw	0
  1545  04D0  00CE               	movwf	___flmul@a
  1546  04D1                     l1387:
  1547  04D1  17D0               	bsf	___flmul@a+2,7
  1548  04D2  2CDB               	goto	l1391
  1549  04D3                     l1389:
  1550  04D3  3000               	movlw	0
  1551  04D4  00D1               	movwf	___flmul@a+3
  1552  04D5  3000               	movlw	0
  1553  04D6  00D0               	movwf	___flmul@a+2
  1554  04D7  3000               	movlw	0
  1555  04D8  00CF               	movwf	___flmul@a+1
  1556  04D9  3000               	movlw	0
  1557  04DA  00CE               	movwf	___flmul@a
  1558  04DB                     l1391:
  1559  04DB  085C               	movf	___flmul@aexp,w
  1560  04DC  1903               	btfsc	3,2
  1561  04DD  2CDF               	goto	u1701
  1562  04DE  2CE0               	goto	u1700
  1563  04DF                     u1701:
  1564  04DF  2CE5               	goto	l1395
  1565  04E0                     u1700:
  1566  04E0                     l1393:
  1567  04E0  085D               	movf	___flmul@bexp,w
  1568  04E1  1D03               	btfss	3,2
  1569  04E2  2CE4               	goto	u1711
  1570  04E3  2CE5               	goto	u1710
  1571  04E4                     u1711:
  1572  04E4  2CEE               	goto	l1399
  1573  04E5                     u1710:
  1574  04E5                     l1395:
  1575  04E5  3000               	movlw	0
  1576  04E6  00CD               	movwf	?___flmul+3
  1577  04E7  3000               	movlw	0
  1578  04E8  00CC               	movwf	?___flmul+2
  1579  04E9  3000               	movlw	0
  1580  04EA  00CB               	movwf	?___flmul+1
  1581  04EB  3000               	movlw	0
  1582  04EC  00CA               	movwf	?___flmul
  1583  04ED  2FE1               	goto	l538
  1584  04EE                     l1399:
  1585  04EE  084A               	movf	___flmul@b,w
  1586  04EF  00D2               	movwf	??___flmul
  1587  04F0  0852               	movf	??___flmul,w
  1588  04F1  00F0               	movwf	__Umul8_16@multiplicand
  1589  04F2  0850               	movf	___flmul@a+2,w
  1590  04F3  120A  158A  2736  120A  118A  	fcall	__Umul8_16
  1591  04F8  0871               	movf	?__Umul8_16+1,w
  1592  04F9  1283               	bcf	3,5	;RP0=0, select bank0
  1593  04FA  1303               	bcf	3,6	;RP1=0, select bank0
  1594  04FB  00E3               	movwf	___flmul@temp+1
  1595  04FC  0870               	movf	?__Umul8_16,w
  1596  04FD  00E2               	movwf	___flmul@temp
  1597  04FE                     l1401:
  1598  04FE  0862               	movf	___flmul@temp,w
  1599  04FF  00D2               	movwf	??___flmul
  1600  0500  01D3               	clrf	??___flmul+1
  1601  0501  01D4               	clrf	??___flmul+2
  1602  0502  01D5               	clrf	??___flmul+3
  1603  0503  0855               	movf	??___flmul+3,w
  1604  0504  00DB               	movwf	___flmul@grs+3
  1605  0505  0854               	movf	??___flmul+2,w
  1606  0506  00DA               	movwf	___flmul@grs+2
  1607  0507  0853               	movf	??___flmul+1,w
  1608  0508  00D9               	movwf	___flmul@grs+1
  1609  0509  0852               	movf	??___flmul,w
  1610  050A  00D8               	movwf	___flmul@grs
  1611  050B                     l1403:
  1612  050B  0863               	movf	___flmul@temp+1,w
  1613  050C  00D2               	movwf	??___flmul
  1614  050D  01D3               	clrf	??___flmul+1
  1615  050E  01D4               	clrf	??___flmul+2
  1616  050F  01D5               	clrf	??___flmul+3
  1617  0510  0855               	movf	??___flmul+3,w
  1618  0511  00E1               	movwf	___flmul@prod+3
  1619  0512  0854               	movf	??___flmul+2,w
  1620  0513  00E0               	movwf	___flmul@prod+2
  1621  0514  0853               	movf	??___flmul+1,w
  1622  0515  00DF               	movwf	___flmul@prod+1
  1623  0516  0852               	movf	??___flmul,w
  1624  0517  00DE               	movwf	___flmul@prod
  1625  0518  084B               	movf	___flmul@b+1,w
  1626  0519  00D2               	movwf	??___flmul
  1627  051A  0852               	movf	??___flmul,w
  1628  051B  00F0               	movwf	__Umul8_16@multiplicand
  1629  051C  084F               	movf	___flmul@a+1,w
  1630  051D  120A  158A  2736  120A  118A  	fcall	__Umul8_16
  1631  0522  0871               	movf	?__Umul8_16+1,w
  1632  0523  1283               	bcf	3,5	;RP0=0, select bank0
  1633  0524  1303               	bcf	3,6	;RP1=0, select bank0
  1634  0525  00E3               	movwf	___flmul@temp+1
  1635  0526  0870               	movf	?__Umul8_16,w
  1636  0527  00E2               	movwf	___flmul@temp
  1637  0528                     l1405:
  1638  0528  0862               	movf	___flmul@temp,w
  1639  0529  00D2               	movwf	??___flmul
  1640  052A  01D3               	clrf	??___flmul+1
  1641  052B  01D4               	clrf	??___flmul+2
  1642  052C  01D5               	clrf	??___flmul+3
  1643  052D  0852               	movf	??___flmul,w
  1644  052E  07D8               	addwf	___flmul@grs,f
  1645  052F  0853               	movf	??___flmul+1,w
  1646  0530  1103               	clrz
  1647  0531  1803               	skipnc
  1648  0532  3E01               	addlw	1
  1649  0533  1903               	skipnz
  1650  0534  2D36               	goto	u1721
  1651  0535  07D9               	addwf	___flmul@grs+1,f
  1652  0536                     u1721:
  1653  0536  0854               	movf	??___flmul+2,w
  1654  0537  1103               	clrz
  1655  0538  1803               	skipnc
  1656  0539  3E01               	addlw	1
  1657  053A  1903               	skipnz
  1658  053B  2D3D               	goto	u1722
  1659  053C  07DA               	addwf	___flmul@grs+2,f
  1660  053D                     u1722:
  1661  053D  0855               	movf	??___flmul+3,w
  1662  053E  1103               	clrz
  1663  053F  1803               	skipnc
  1664  0540  3E01               	addlw	1
  1665  0541  1903               	skipnz
  1666  0542  2D44               	goto	u1723
  1667  0543  07DB               	addwf	___flmul@grs+3,f
  1668  0544                     u1723:
  1669  0544                     l1407:
  1670  0544  0863               	movf	___flmul@temp+1,w
  1671  0545  00D2               	movwf	??___flmul
  1672  0546  01D3               	clrf	??___flmul+1
  1673  0547  01D4               	clrf	??___flmul+2
  1674  0548  01D5               	clrf	??___flmul+3
  1675  0549  0852               	movf	??___flmul,w
  1676  054A  07DE               	addwf	___flmul@prod,f
  1677  054B  0853               	movf	??___flmul+1,w
  1678  054C  1103               	clrz
  1679  054D  1803               	skipnc
  1680  054E  3E01               	addlw	1
  1681  054F  1903               	skipnz
  1682  0550  2D52               	goto	u1731
  1683  0551  07DF               	addwf	___flmul@prod+1,f
  1684  0552                     u1731:
  1685  0552  0854               	movf	??___flmul+2,w
  1686  0553  1103               	clrz
  1687  0554  1803               	skipnc
  1688  0555  3E01               	addlw	1
  1689  0556  1903               	skipnz
  1690  0557  2D59               	goto	u1732
  1691  0558  07E0               	addwf	___flmul@prod+2,f
  1692  0559                     u1732:
  1693  0559  0855               	movf	??___flmul+3,w
  1694  055A  1103               	clrz
  1695  055B  1803               	skipnc
  1696  055C  3E01               	addlw	1
  1697  055D  1903               	skipnz
  1698  055E  2D60               	goto	u1733
  1699  055F  07E1               	addwf	___flmul@prod+3,f
  1700  0560                     u1733:
  1701  0560  084C               	movf	___flmul@b+2,w
  1702  0561  00D2               	movwf	??___flmul
  1703  0562  0852               	movf	??___flmul,w
  1704  0563  00F0               	movwf	__Umul8_16@multiplicand
  1705  0564  084E               	movf	___flmul@a,w
  1706  0565  120A  158A  2736  120A  118A  	fcall	__Umul8_16
  1707  056A  0871               	movf	?__Umul8_16+1,w
  1708  056B  1283               	bcf	3,5	;RP0=0, select bank0
  1709  056C  1303               	bcf	3,6	;RP1=0, select bank0
  1710  056D  00E3               	movwf	___flmul@temp+1
  1711  056E  0870               	movf	?__Umul8_16,w
  1712  056F  00E2               	movwf	___flmul@temp
  1713  0570                     l1409:
  1714  0570  0862               	movf	___flmul@temp,w
  1715  0571  00D2               	movwf	??___flmul
  1716  0572  01D3               	clrf	??___flmul+1
  1717  0573  01D4               	clrf	??___flmul+2
  1718  0574  01D5               	clrf	??___flmul+3
  1719  0575  0852               	movf	??___flmul,w
  1720  0576  07D8               	addwf	___flmul@grs,f
  1721  0577  0853               	movf	??___flmul+1,w
  1722  0578  1103               	clrz
  1723  0579  1803               	skipnc
  1724  057A  3E01               	addlw	1
  1725  057B  1903               	skipnz
  1726  057C  2D7E               	goto	u1741
  1727  057D  07D9               	addwf	___flmul@grs+1,f
  1728  057E                     u1741:
  1729  057E  0854               	movf	??___flmul+2,w
  1730  057F  1103               	clrz
  1731  0580  1803               	skipnc
  1732  0581  3E01               	addlw	1
  1733  0582  1903               	skipnz
  1734  0583  2D85               	goto	u1742
  1735  0584  07DA               	addwf	___flmul@grs+2,f
  1736  0585                     u1742:
  1737  0585  0855               	movf	??___flmul+3,w
  1738  0586  1103               	clrz
  1739  0587  1803               	skipnc
  1740  0588  3E01               	addlw	1
  1741  0589  1903               	skipnz
  1742  058A  2D8C               	goto	u1743
  1743  058B  07DB               	addwf	___flmul@grs+3,f
  1744  058C                     u1743:
  1745  058C                     l1411:
  1746  058C  0863               	movf	___flmul@temp+1,w
  1747  058D  00D2               	movwf	??___flmul
  1748  058E  01D3               	clrf	??___flmul+1
  1749  058F  01D4               	clrf	??___flmul+2
  1750  0590  01D5               	clrf	??___flmul+3
  1751  0591  0852               	movf	??___flmul,w
  1752  0592  07DE               	addwf	___flmul@prod,f
  1753  0593  0853               	movf	??___flmul+1,w
  1754  0594  1103               	clrz
  1755  0595  1803               	skipnc
  1756  0596  3E01               	addlw	1
  1757  0597  1903               	skipnz
  1758  0598  2D9A               	goto	u1751
  1759  0599  07DF               	addwf	___flmul@prod+1,f
  1760  059A                     u1751:
  1761  059A  0854               	movf	??___flmul+2,w
  1762  059B  1103               	clrz
  1763  059C  1803               	skipnc
  1764  059D  3E01               	addlw	1
  1765  059E  1903               	skipnz
  1766  059F  2DA1               	goto	u1752
  1767  05A0  07E0               	addwf	___flmul@prod+2,f
  1768  05A1                     u1752:
  1769  05A1  0855               	movf	??___flmul+3,w
  1770  05A2  1103               	clrz
  1771  05A3  1803               	skipnc
  1772  05A4  3E01               	addlw	1
  1773  05A5  1903               	skipnz
  1774  05A6  2DA8               	goto	u1753
  1775  05A7  07E1               	addwf	___flmul@prod+3,f
  1776  05A8                     u1753:
  1777  05A8                     l1413:
  1778  05A8  3008               	movlw	8
  1779  05A9  00D2               	movwf	??___flmul
  1780  05AA                     u1765:
  1781  05AA  1003               	clrc
  1782  05AB  0DD8               	rlf	___flmul@grs,f
  1783  05AC  0DD9               	rlf	___flmul@grs+1,f
  1784  05AD  0DDA               	rlf	___flmul@grs+2,f
  1785  05AE  0DDB               	rlf	___flmul@grs+3,f
  1786  05AF  0BD2               	decfsz	??___flmul,f
  1787  05B0  2DAA               	goto	u1765
  1788  05B1                     l1415:
  1789  05B1  084B               	movf	___flmul@b+1,w
  1790  05B2  00D2               	movwf	??___flmul
  1791  05B3  0852               	movf	??___flmul,w
  1792  05B4  00F0               	movwf	__Umul8_16@multiplicand
  1793  05B5  084E               	movf	___flmul@a,w
  1794  05B6  120A  158A  2736  120A  118A  	fcall	__Umul8_16
  1795  05BB  0871               	movf	?__Umul8_16+1,w
  1796  05BC  1283               	bcf	3,5	;RP0=0, select bank0
  1797  05BD  1303               	bcf	3,6	;RP1=0, select bank0
  1798  05BE  00E3               	movwf	___flmul@temp+1
  1799  05BF  0870               	movf	?__Umul8_16,w
  1800  05C0  00E2               	movwf	___flmul@temp
  1801  05C1                     l1417:
  1802  05C1  0862               	movf	___flmul@temp,w
  1803  05C2  00D2               	movwf	??___flmul
  1804  05C3  0863               	movf	___flmul@temp+1,w
  1805  05C4  00D3               	movwf	??___flmul+1
  1806  05C5  01D4               	clrf	??___flmul+2
  1807  05C6  01D5               	clrf	??___flmul+3
  1808  05C7  0852               	movf	??___flmul,w
  1809  05C8  07D8               	addwf	___flmul@grs,f
  1810  05C9  0853               	movf	??___flmul+1,w
  1811  05CA  1103               	clrz
  1812  05CB  1803               	skipnc
  1813  05CC  3E01               	addlw	1
  1814  05CD  1903               	skipnz
  1815  05CE  2DD0               	goto	u1771
  1816  05CF  07D9               	addwf	___flmul@grs+1,f
  1817  05D0                     u1771:
  1818  05D0  0854               	movf	??___flmul+2,w
  1819  05D1  1103               	clrz
  1820  05D2  1803               	skipnc
  1821  05D3  3E01               	addlw	1
  1822  05D4  1903               	skipnz
  1823  05D5  2DD7               	goto	u1772
  1824  05D6  07DA               	addwf	___flmul@grs+2,f
  1825  05D7                     u1772:
  1826  05D7  0855               	movf	??___flmul+3,w
  1827  05D8  1103               	clrz
  1828  05D9  1803               	skipnc
  1829  05DA  3E01               	addlw	1
  1830  05DB  1903               	skipnz
  1831  05DC  2DDE               	goto	u1773
  1832  05DD  07DB               	addwf	___flmul@grs+3,f
  1833  05DE                     u1773:
  1834  05DE                     l1419:
  1835  05DE  084A               	movf	___flmul@b,w
  1836  05DF  00D2               	movwf	??___flmul
  1837  05E0  0852               	movf	??___flmul,w
  1838  05E1  00F0               	movwf	__Umul8_16@multiplicand
  1839  05E2  084F               	movf	___flmul@a+1,w
  1840  05E3  120A  158A  2736  120A  118A  	fcall	__Umul8_16
  1841  05E8  0871               	movf	?__Umul8_16+1,w
  1842  05E9  1283               	bcf	3,5	;RP0=0, select bank0
  1843  05EA  1303               	bcf	3,6	;RP1=0, select bank0
  1844  05EB  00E3               	movwf	___flmul@temp+1
  1845  05EC  0870               	movf	?__Umul8_16,w
  1846  05ED  00E2               	movwf	___flmul@temp
  1847  05EE                     l1421:
  1848  05EE  0862               	movf	___flmul@temp,w
  1849  05EF  00D2               	movwf	??___flmul
  1850  05F0  0863               	movf	___flmul@temp+1,w
  1851  05F1  00D3               	movwf	??___flmul+1
  1852  05F2  01D4               	clrf	??___flmul+2
  1853  05F3  01D5               	clrf	??___flmul+3
  1854  05F4  0852               	movf	??___flmul,w
  1855  05F5  07D8               	addwf	___flmul@grs,f
  1856  05F6  0853               	movf	??___flmul+1,w
  1857  05F7  1103               	clrz
  1858  05F8  1803               	skipnc
  1859  05F9  3E01               	addlw	1
  1860  05FA  1903               	skipnz
  1861  05FB  2DFD               	goto	u1781
  1862  05FC  07D9               	addwf	___flmul@grs+1,f
  1863  05FD                     u1781:
  1864  05FD  0854               	movf	??___flmul+2,w
  1865  05FE  1103               	clrz
  1866  05FF  1803               	skipnc
  1867  0600  3E01               	addlw	1
  1868  0601  1903               	skipnz
  1869  0602  2E04               	goto	u1782
  1870  0603  07DA               	addwf	___flmul@grs+2,f
  1871  0604                     u1782:
  1872  0604  0855               	movf	??___flmul+3,w
  1873  0605  1103               	clrz
  1874  0606  1803               	skipnc
  1875  0607  3E01               	addlw	1
  1876  0608  1903               	skipnz
  1877  0609  2E0B               	goto	u1783
  1878  060A  07DB               	addwf	___flmul@grs+3,f
  1879  060B                     u1783:
  1880  060B                     l1423:
  1881  060B  3008               	movlw	8
  1882  060C  00D2               	movwf	??___flmul
  1883  060D                     u1795:
  1884  060D  1003               	clrc
  1885  060E  0DD8               	rlf	___flmul@grs,f
  1886  060F  0DD9               	rlf	___flmul@grs+1,f
  1887  0610  0DDA               	rlf	___flmul@grs+2,f
  1888  0611  0DDB               	rlf	___flmul@grs+3,f
  1889  0612  0BD2               	decfsz	??___flmul,f
  1890  0613  2E0D               	goto	u1795
  1891  0614  084A               	movf	___flmul@b,w
  1892  0615  00D2               	movwf	??___flmul
  1893  0616  0852               	movf	??___flmul,w
  1894  0617  00F0               	movwf	__Umul8_16@multiplicand
  1895  0618  084E               	movf	___flmul@a,w
  1896  0619  120A  158A  2736  120A  118A  	fcall	__Umul8_16
  1897  061E  0871               	movf	?__Umul8_16+1,w
  1898  061F  1283               	bcf	3,5	;RP0=0, select bank0
  1899  0620  1303               	bcf	3,6	;RP1=0, select bank0
  1900  0621  00E3               	movwf	___flmul@temp+1
  1901  0622  0870               	movf	?__Umul8_16,w
  1902  0623  00E2               	movwf	___flmul@temp
  1903  0624                     l1425:
  1904  0624  0862               	movf	___flmul@temp,w
  1905  0625  00D2               	movwf	??___flmul
  1906  0626  0863               	movf	___flmul@temp+1,w
  1907  0627  00D3               	movwf	??___flmul+1
  1908  0628  01D4               	clrf	??___flmul+2
  1909  0629  01D5               	clrf	??___flmul+3
  1910  062A  0852               	movf	??___flmul,w
  1911  062B  07D8               	addwf	___flmul@grs,f
  1912  062C  0853               	movf	??___flmul+1,w
  1913  062D  1103               	clrz
  1914  062E  1803               	skipnc
  1915  062F  3E01               	addlw	1
  1916  0630  1903               	skipnz
  1917  0631  2E33               	goto	u1801
  1918  0632  07D9               	addwf	___flmul@grs+1,f
  1919  0633                     u1801:
  1920  0633  0854               	movf	??___flmul+2,w
  1921  0634  1103               	clrz
  1922  0635  1803               	skipnc
  1923  0636  3E01               	addlw	1
  1924  0637  1903               	skipnz
  1925  0638  2E3A               	goto	u1802
  1926  0639  07DA               	addwf	___flmul@grs+2,f
  1927  063A                     u1802:
  1928  063A  0855               	movf	??___flmul+3,w
  1929  063B  1103               	clrz
  1930  063C  1803               	skipnc
  1931  063D  3E01               	addlw	1
  1932  063E  1903               	skipnz
  1933  063F  2E41               	goto	u1803
  1934  0640  07DB               	addwf	___flmul@grs+3,f
  1935  0641                     u1803:
  1936  0641                     l1427:
  1937  0641  084B               	movf	___flmul@b+1,w
  1938  0642  00D2               	movwf	??___flmul
  1939  0643  0852               	movf	??___flmul,w
  1940  0644  00F0               	movwf	__Umul8_16@multiplicand
  1941  0645  0850               	movf	___flmul@a+2,w
  1942  0646  120A  158A  2736  120A  118A  	fcall	__Umul8_16
  1943  064B  0871               	movf	?__Umul8_16+1,w
  1944  064C  1283               	bcf	3,5	;RP0=0, select bank0
  1945  064D  1303               	bcf	3,6	;RP1=0, select bank0
  1946  064E  00E3               	movwf	___flmul@temp+1
  1947  064F  0870               	movf	?__Umul8_16,w
  1948  0650  00E2               	movwf	___flmul@temp
  1949  0651  0862               	movf	___flmul@temp,w
  1950  0652  00D2               	movwf	??___flmul
  1951  0653  0863               	movf	___flmul@temp+1,w
  1952  0654  00D3               	movwf	??___flmul+1
  1953  0655  01D4               	clrf	??___flmul+2
  1954  0656  01D5               	clrf	??___flmul+3
  1955  0657  0852               	movf	??___flmul,w
  1956  0658  07DE               	addwf	___flmul@prod,f
  1957  0659  0853               	movf	??___flmul+1,w
  1958  065A  1103               	clrz
  1959  065B  1803               	skipnc
  1960  065C  3E01               	addlw	1
  1961  065D  1903               	skipnz
  1962  065E  2E60               	goto	u1811
  1963  065F  07DF               	addwf	___flmul@prod+1,f
  1964  0660                     u1811:
  1965  0660  0854               	movf	??___flmul+2,w
  1966  0661  1103               	clrz
  1967  0662  1803               	skipnc
  1968  0663  3E01               	addlw	1
  1969  0664  1903               	skipnz
  1970  0665  2E67               	goto	u1812
  1971  0666  07E0               	addwf	___flmul@prod+2,f
  1972  0667                     u1812:
  1973  0667  0855               	movf	??___flmul+3,w
  1974  0668  1103               	clrz
  1975  0669  1803               	skipnc
  1976  066A  3E01               	addlw	1
  1977  066B  1903               	skipnz
  1978  066C  2E6E               	goto	u1813
  1979  066D  07E1               	addwf	___flmul@prod+3,f
  1980  066E                     u1813:
  1981  066E                     l1429:
  1982  066E  084C               	movf	___flmul@b+2,w
  1983  066F  00D2               	movwf	??___flmul
  1984  0670  0852               	movf	??___flmul,w
  1985  0671  00F0               	movwf	__Umul8_16@multiplicand
  1986  0672  084F               	movf	___flmul@a+1,w
  1987  0673  120A  158A  2736  120A  118A  	fcall	__Umul8_16
  1988  0678  0871               	movf	?__Umul8_16+1,w
  1989  0679  1283               	bcf	3,5	;RP0=0, select bank0
  1990  067A  1303               	bcf	3,6	;RP1=0, select bank0
  1991  067B  00E3               	movwf	___flmul@temp+1
  1992  067C  0870               	movf	?__Umul8_16,w
  1993  067D  00E2               	movwf	___flmul@temp
  1994  067E                     l1431:
  1995  067E  0862               	movf	___flmul@temp,w
  1996  067F  00D2               	movwf	??___flmul
  1997  0680  0863               	movf	___flmul@temp+1,w
  1998  0681  00D3               	movwf	??___flmul+1
  1999  0682  01D4               	clrf	??___flmul+2
  2000  0683  01D5               	clrf	??___flmul+3
  2001  0684  0852               	movf	??___flmul,w
  2002  0685  07DE               	addwf	___flmul@prod,f
  2003  0686  0853               	movf	??___flmul+1,w
  2004  0687  1103               	clrz
  2005  0688  1803               	skipnc
  2006  0689  3E01               	addlw	1
  2007  068A  1903               	skipnz
  2008  068B  2E8D               	goto	u1821
  2009  068C  07DF               	addwf	___flmul@prod+1,f
  2010  068D                     u1821:
  2011  068D  0854               	movf	??___flmul+2,w
  2012  068E  1103               	clrz
  2013  068F  1803               	skipnc
  2014  0690  3E01               	addlw	1
  2015  0691  1903               	skipnz
  2016  0692  2E94               	goto	u1822
  2017  0693  07E0               	addwf	___flmul@prod+2,f
  2018  0694                     u1822:
  2019  0694  0855               	movf	??___flmul+3,w
  2020  0695  1103               	clrz
  2021  0696  1803               	skipnc
  2022  0697  3E01               	addlw	1
  2023  0698  1903               	skipnz
  2024  0699  2E9B               	goto	u1823
  2025  069A  07E1               	addwf	___flmul@prod+3,f
  2026  069B                     u1823:
  2027  069B  084C               	movf	___flmul@b+2,w
  2028  069C  00D2               	movwf	??___flmul
  2029  069D  0852               	movf	??___flmul,w
  2030  069E  00F0               	movwf	__Umul8_16@multiplicand
  2031  069F  0850               	movf	___flmul@a+2,w
  2032  06A0  120A  158A  2736  120A  118A  	fcall	__Umul8_16
  2033  06A5  0871               	movf	?__Umul8_16+1,w
  2034  06A6  1283               	bcf	3,5	;RP0=0, select bank0
  2035  06A7  1303               	bcf	3,6	;RP1=0, select bank0
  2036  06A8  00E3               	movwf	___flmul@temp+1
  2037  06A9  0870               	movf	?__Umul8_16,w
  2038  06AA  00E2               	movwf	___flmul@temp
  2039  06AB                     l1433:
  2040  06AB  0862               	movf	___flmul@temp,w
  2041  06AC  00D2               	movwf	??___flmul
  2042  06AD  0863               	movf	___flmul@temp+1,w
  2043  06AE  00D3               	movwf	??___flmul+1
  2044  06AF  01D4               	clrf	??___flmul+2
  2045  06B0  01D5               	clrf	??___flmul+3
  2046  06B1  3008               	movlw	8
  2047  06B2                     u1835:
  2048  06B2  1003               	clrc
  2049  06B3  0DD2               	rlf	??___flmul,f
  2050  06B4  0DD3               	rlf	??___flmul+1,f
  2051  06B5  0DD4               	rlf	??___flmul+2,f
  2052  06B6  0DD5               	rlf	??___flmul+3,f
  2053  06B7                     u1830:
  2054  06B7  3EFF               	addlw	-1
  2055  06B8  1D03               	skipz
  2056  06B9  2EB2               	goto	u1835
  2057  06BA  0852               	movf	??___flmul,w
  2058  06BB  07DE               	addwf	___flmul@prod,f
  2059  06BC  0853               	movf	??___flmul+1,w
  2060  06BD  1103               	clrz
  2061  06BE  1803               	skipnc
  2062  06BF  3E01               	addlw	1
  2063  06C0  1903               	skipnz
  2064  06C1  2EC3               	goto	u1841
  2065  06C2  07DF               	addwf	___flmul@prod+1,f
  2066  06C3                     u1841:
  2067  06C3  0854               	movf	??___flmul+2,w
  2068  06C4  1103               	clrz
  2069  06C5  1803               	skipnc
  2070  06C6  3E01               	addlw	1
  2071  06C7  1903               	skipnz
  2072  06C8  2ECA               	goto	u1842
  2073  06C9  07E0               	addwf	___flmul@prod+2,f
  2074  06CA                     u1842:
  2075  06CA  0855               	movf	??___flmul+3,w
  2076  06CB  1103               	clrz
  2077  06CC  1803               	skipnc
  2078  06CD  3E01               	addlw	1
  2079  06CE  1903               	skipnz
  2080  06CF  2ED1               	goto	u1843
  2081  06D0  07E1               	addwf	___flmul@prod+3,f
  2082  06D1                     u1843:
  2083  06D1                     l1435:
  2084  06D1  0858               	movf	___flmul@grs,w
  2085  06D2  00D2               	movwf	??___flmul
  2086  06D3  0859               	movf	___flmul@grs+1,w
  2087  06D4  00D3               	movwf	??___flmul+1
  2088  06D5  085A               	movf	___flmul@grs+2,w
  2089  06D6  00D4               	movwf	??___flmul+2
  2090  06D7  085B               	movf	___flmul@grs+3,w
  2091  06D8  00D5               	movwf	??___flmul+3
  2092  06D9  3018               	movlw	24
  2093  06DA                     u1855:
  2094  06DA  1003               	clrc
  2095  06DB  0CD5               	rrf	??___flmul+3,f
  2096  06DC  0CD4               	rrf	??___flmul+2,f
  2097  06DD  0CD3               	rrf	??___flmul+1,f
  2098  06DE  0CD2               	rrf	??___flmul,f
  2099  06DF                     u1850:
  2100  06DF  3EFF               	addlw	-1
  2101  06E0  1D03               	skipz
  2102  06E1  2EDA               	goto	u1855
  2103  06E2  0852               	movf	??___flmul,w
  2104  06E3  07DE               	addwf	___flmul@prod,f
  2105  06E4  0853               	movf	??___flmul+1,w
  2106  06E5  1103               	clrz
  2107  06E6  1803               	skipnc
  2108  06E7  3E01               	addlw	1
  2109  06E8  1903               	skipnz
  2110  06E9  2EEB               	goto	u1861
  2111  06EA  07DF               	addwf	___flmul@prod+1,f
  2112  06EB                     u1861:
  2113  06EB  0854               	movf	??___flmul+2,w
  2114  06EC  1103               	clrz
  2115  06ED  1803               	skipnc
  2116  06EE  3E01               	addlw	1
  2117  06EF  1903               	skipnz
  2118  06F0  2EF2               	goto	u1862
  2119  06F1  07E0               	addwf	___flmul@prod+2,f
  2120  06F2                     u1862:
  2121  06F2  0855               	movf	??___flmul+3,w
  2122  06F3  1103               	clrz
  2123  06F4  1803               	skipnc
  2124  06F5  3E01               	addlw	1
  2125  06F6  1903               	skipnz
  2126  06F7  2EF9               	goto	u1863
  2127  06F8  07E1               	addwf	___flmul@prod+3,f
  2128  06F9                     u1863:
  2129  06F9                     l1437:
  2130  06F9  3008               	movlw	8
  2131  06FA  00D2               	movwf	??___flmul
  2132  06FB                     u1875:
  2133  06FB  1003               	clrc
  2134  06FC  0DD8               	rlf	___flmul@grs,f
  2135  06FD  0DD9               	rlf	___flmul@grs+1,f
  2136  06FE  0DDA               	rlf	___flmul@grs+2,f
  2137  06FF  0DDB               	rlf	___flmul@grs+3,f
  2138  0700  0BD2               	decfsz	??___flmul,f
  2139  0701  2EFB               	goto	u1875
  2140  0702                     l1439:
  2141  0702  085D               	movf	___flmul@bexp,w
  2142  0703  075C               	addwf	___flmul@aexp,w
  2143  0704  00D2               	movwf	??___flmul
  2144  0705  01D3               	clrf	??___flmul+1
  2145  0706  0DD3               	rlf	??___flmul+1,f
  2146  0707  0852               	movf	??___flmul,w
  2147  0708  3E82               	addlw	130
  2148  0709  00E2               	movwf	___flmul@temp
  2149  070A  0853               	movf	??___flmul+1,w
  2150  070B  1803               	skipnc
  2151  070C  3E01               	addlw	1
  2152  070D  3EFF               	addlw	255
  2153  070E  00E3               	movwf	___flmul@temp+1
  2154  070F  2F2D               	goto	l1451
  2155  0710                     l1441:
  2156  0710  3001               	movlw	1
  2157  0711  00D2               	movwf	??___flmul
  2158  0712                     u1885:
  2159  0712  1003               	clrc
  2160  0713  0DDE               	rlf	___flmul@prod,f
  2161  0714  0DDF               	rlf	___flmul@prod+1,f
  2162  0715  0DE0               	rlf	___flmul@prod+2,f
  2163  0716  0DE1               	rlf	___flmul@prod+3,f
  2164  0717  0BD2               	decfsz	??___flmul,f
  2165  0718  2F12               	goto	u1885
  2166  0719                     l1443:
  2167  0719  1FDB               	btfss	___flmul@grs+3,7
  2168  071A  2F1C               	goto	u1891
  2169  071B  2F1D               	goto	u1890
  2170  071C                     u1891:
  2171  071C  2F1E               	goto	l1447
  2172  071D                     u1890:
  2173  071D                     l1445:
  2174  071D  145E               	bsf	___flmul@prod,0
  2175  071E                     l1447:
  2176  071E  3001               	movlw	1
  2177  071F  00D2               	movwf	??___flmul
  2178  0720                     u1905:
  2179  0720  1003               	clrc
  2180  0721  0DD8               	rlf	___flmul@grs,f
  2181  0722  0DD9               	rlf	___flmul@grs+1,f
  2182  0723  0DDA               	rlf	___flmul@grs+2,f
  2183  0724  0DDB               	rlf	___flmul@grs+3,f
  2184  0725  0BD2               	decfsz	??___flmul,f
  2185  0726  2F20               	goto	u1905
  2186  0727                     l1449:
  2187  0727  30FF               	movlw	255
  2188  0728  07E2               	addwf	___flmul@temp,f
  2189  0729  1803               	skipnc
  2190  072A  0AE3               	incf	___flmul@temp+1,f
  2191  072B  30FF               	movlw	255
  2192  072C  07E3               	addwf	___flmul@temp+1,f
  2193  072D                     l1451:
  2194  072D  1FE0               	btfss	___flmul@prod+2,7
  2195  072E  2F30               	goto	u1911
  2196  072F  2F31               	goto	u1910
  2197  0730                     u1911:
  2198  0730  2F10               	goto	l1441
  2199  0731                     u1910:
  2200  0731                     l1453:
  2201  0731  01DC               	clrf	___flmul@aexp
  2202  0732                     l1455:
  2203  0732  1FDB               	btfss	___flmul@grs+3,7
  2204  0733  2F35               	goto	u1921
  2205  0734  2F36               	goto	u1920
  2206  0735                     u1921:
  2207  0735  2F52               	goto	l1463
  2208  0736                     u1920:
  2209  0736                     l1457:
  2210  0736  30FF               	movlw	255
  2211  0737  0558               	andwf	___flmul@grs,w
  2212  0738  00D2               	movwf	??___flmul
  2213  0739  30FF               	movlw	255
  2214  073A  0559               	andwf	___flmul@grs+1,w
  2215  073B  00D3               	movwf	??___flmul+1
  2216  073C  30FF               	movlw	255
  2217  073D  055A               	andwf	___flmul@grs+2,w
  2218  073E  00D4               	movwf	??___flmul+2
  2219  073F  307F               	movlw	127
  2220  0740  055B               	andwf	___flmul@grs+3,w
  2221  0741  00D5               	movwf	??___flmul+3
  2222  0742  0855               	movf	??___flmul+3,w
  2223  0743  0454               	iorwf	??___flmul+2,w
  2224  0744  0453               	iorwf	??___flmul+1,w
  2225  0745  0452               	iorwf	??___flmul,w
  2226  0746  1903               	skipnz
  2227  0747  2F49               	goto	u1931
  2228  0748  2F4A               	goto	u1930
  2229  0749                     u1931:
  2230  0749  2F4D               	goto	l544
  2231  074A                     u1930:
  2232  074A                     l1459:
  2233  074A  01DC               	clrf	___flmul@aexp
  2234  074B  0ADC               	incf	___flmul@aexp,f
  2235  074C  2F52               	goto	l1463
  2236  074D                     l544:
  2237  074D  1C5E               	btfss	___flmul@prod,0
  2238  074E  2F50               	goto	u1941
  2239  074F  2F51               	goto	u1940
  2240  0750                     u1941:
  2241  0750  2F52               	goto	l1463
  2242  0751                     u1940:
  2243  0751  2F4A               	goto	l1459
  2244  0752                     l1463:
  2245  0752  085C               	movf	___flmul@aexp,w
  2246  0753  1903               	btfsc	3,2
  2247  0754  2F56               	goto	u1951
  2248  0755  2F57               	goto	u1950
  2249  0756                     u1951:
  2250  0756  2F88               	goto	l1473
  2251  0757                     u1950:
  2252  0757                     l1465:
  2253  0757  3001               	movlw	1
  2254  0758  07DE               	addwf	___flmul@prod,f
  2255  0759  3000               	movlw	0
  2256  075A  1803               	skipnc
  2257  075B  3001               	movlw	1
  2258  075C  07DF               	addwf	___flmul@prod+1,f
  2259  075D  3000               	movlw	0
  2260  075E  1803               	skipnc
  2261  075F  3001               	movlw	1
  2262  0760  07E0               	addwf	___flmul@prod+2,f
  2263  0761  3000               	movlw	0
  2264  0762  1803               	skipnc
  2265  0763  3001               	movlw	1
  2266  0764  07E1               	addwf	___flmul@prod+3,f
  2267  0765                     l1467:
  2268  0765  1C61               	btfss	___flmul@prod+3,0
  2269  0766  2F68               	goto	u1961
  2270  0767  2F69               	goto	u1960
  2271  0768                     u1961:
  2272  0768  2F88               	goto	l1473
  2273  0769                     u1960:
  2274  0769                     l1469:
  2275  0769  085E               	movf	___flmul@prod,w
  2276  076A  00D2               	movwf	??___flmul
  2277  076B  085F               	movf	___flmul@prod+1,w
  2278  076C  00D3               	movwf	??___flmul+1
  2279  076D  0860               	movf	___flmul@prod+2,w
  2280  076E  00D4               	movwf	??___flmul+2
  2281  076F  0861               	movf	___flmul@prod+3,w
  2282  0770  00D5               	movwf	??___flmul+3
  2283  0771  3001               	movlw	1
  2284  0772  00D6               	movwf	??___flmul+4
  2285  0773                     u1975:
  2286  0773  0D55               	rlf	??___flmul+3,w
  2287  0774  0CD5               	rrf	??___flmul+3,f
  2288  0775  0CD4               	rrf	??___flmul+2,f
  2289  0776  0CD3               	rrf	??___flmul+1,f
  2290  0777  0CD2               	rrf	??___flmul,f
  2291  0778                     u1970:
  2292  0778  0BD6               	decfsz	??___flmul+4,f
  2293  0779  2F73               	goto	u1975
  2294  077A  0855               	movf	??___flmul+3,w
  2295  077B  00E1               	movwf	___flmul@prod+3
  2296  077C  0854               	movf	??___flmul+2,w
  2297  077D  00E0               	movwf	___flmul@prod+2
  2298  077E  0853               	movf	??___flmul+1,w
  2299  077F  00DF               	movwf	___flmul@prod+1
  2300  0780  0852               	movf	??___flmul,w
  2301  0781  00DE               	movwf	___flmul@prod
  2302  0782                     l1471:
  2303  0782  3001               	movlw	1
  2304  0783  07E2               	addwf	___flmul@temp,f
  2305  0784  1803               	skipnc
  2306  0785  0AE3               	incf	___flmul@temp+1,f
  2307  0786  3000               	movlw	0
  2308  0787  07E3               	addwf	___flmul@temp+1,f
  2309  0788                     l1473:
  2310  0788  0863               	movf	___flmul@temp+1,w
  2311  0789  3A80               	xorlw	128
  2312  078A  00FF               	movwf	btemp+1
  2313  078B  3080               	movlw	128
  2314  078C  027F               	subwf	btemp+1,w
  2315  078D  1D03               	skipz
  2316  078E  2F91               	goto	u1985
  2317  078F  30FF               	movlw	255
  2318  0790  0262               	subwf	___flmul@temp,w
  2319  0791                     u1985:
  2320  0791  1C03               	skipc
  2321  0792  2F94               	goto	u1981
  2322  0793  2F95               	goto	u1980
  2323  0794                     u1981:
  2324  0794  2FA0               	goto	l1477
  2325  0795                     u1980:
  2326  0795                     l1475:
  2327  0795  307F               	movlw	127
  2328  0796  1283               	bcf	3,5	;RP0=0, select bank0
  2329  0797  1303               	bcf	3,6	;RP1=0, select bank0
  2330  0798  00E1               	movwf	___flmul@prod+3
  2331  0799  3080               	movlw	128
  2332  079A  00E0               	movwf	___flmul@prod+2
  2333  079B  3000               	movlw	0
  2334  079C  00DF               	movwf	___flmul@prod+1
  2335  079D  3000               	movlw	0
  2336  079E  00DE               	movwf	___flmul@prod
  2337  079F  2FD5               	goto	l550
  2338  07A0                     l1477:
  2339  07A0  1283               	bcf	3,5	;RP0=0, select bank0
  2340  07A1  1303               	bcf	3,6	;RP1=0, select bank0
  2341  07A2  0863               	movf	___flmul@temp+1,w
  2342  07A3  3A80               	xorlw	128
  2343  07A4  00FF               	movwf	btemp+1
  2344  07A5  3080               	movlw	128
  2345  07A6  027F               	subwf	btemp+1,w
  2346  07A7  1D03               	skipz
  2347  07A8  2FAB               	goto	u1995
  2348  07A9  3001               	movlw	1
  2349  07AA  0262               	subwf	___flmul@temp,w
  2350  07AB                     u1995:
  2351  07AB  1803               	skipnc
  2352  07AC  2FAE               	goto	u1991
  2353  07AD  2FAF               	goto	u1990
  2354  07AE                     u1991:
  2355  07AE  2FBB               	goto	l1483
  2356  07AF                     u1990:
  2357  07AF                     l1479:
  2358  07AF  3000               	movlw	0
  2359  07B0  1283               	bcf	3,5	;RP0=0, select bank0
  2360  07B1  1303               	bcf	3,6	;RP1=0, select bank0
  2361  07B2  00E1               	movwf	___flmul@prod+3
  2362  07B3  3000               	movlw	0
  2363  07B4  00E0               	movwf	___flmul@prod+2
  2364  07B5  3000               	movlw	0
  2365  07B6  00DF               	movwf	___flmul@prod+1
  2366  07B7  3000               	movlw	0
  2367  07B8  00DE               	movwf	___flmul@prod
  2368  07B9                     l1481:
  2369  07B9  01D7               	clrf	___flmul@sign
  2370  07BA  2FD5               	goto	l550
  2371  07BB                     l1483:
  2372  07BB  1283               	bcf	3,5	;RP0=0, select bank0
  2373  07BC  1303               	bcf	3,6	;RP1=0, select bank0
  2374  07BD  0862               	movf	___flmul@temp,w
  2375  07BE  00D2               	movwf	??___flmul
  2376  07BF  0852               	movf	??___flmul,w
  2377  07C0  00DD               	movwf	___flmul@bexp
  2378  07C1  30FF               	movlw	255
  2379  07C2  05DE               	andwf	___flmul@prod,f
  2380  07C3  30FF               	movlw	255
  2381  07C4  05DF               	andwf	___flmul@prod+1,f
  2382  07C5  307F               	movlw	127
  2383  07C6  05E0               	andwf	___flmul@prod+2,f
  2384  07C7  3000               	movlw	0
  2385  07C8  05E1               	andwf	___flmul@prod+3,f
  2386  07C9                     l1485:
  2387  07C9  1C5D               	btfss	___flmul@bexp,0
  2388  07CA  2FCC               	goto	u2001
  2389  07CB  2FCD               	goto	u2000
  2390  07CC                     u2001:
  2391  07CC  2FCE               	goto	l1489
  2392  07CD                     u2000:
  2393  07CD                     l1487:
  2394  07CD  17E0               	bsf	___flmul@prod+2,7
  2395  07CE                     l1489:
  2396  07CE  085D               	movf	___flmul@bexp,w
  2397  07CF  00D2               	movwf	??___flmul
  2398  07D0  1003               	clrc
  2399  07D1  0C52               	rrf	??___flmul,w
  2400  07D2  00D3               	movwf	??___flmul+1
  2401  07D3  0853               	movf	??___flmul+1,w
  2402  07D4  00E1               	movwf	___flmul@prod+3
  2403  07D5                     l550:
  2404  07D5  0857               	movf	___flmul@sign,w
  2405  07D6  00D2               	movwf	??___flmul
  2406  07D7  0852               	movf	??___flmul,w
  2407  07D8  04E1               	iorwf	___flmul@prod+3,f
  2408  07D9                     l1491:
  2409  07D9  0861               	movf	___flmul@prod+3,w
  2410  07DA  00CD               	movwf	?___flmul+3
  2411  07DB  0860               	movf	___flmul@prod+2,w
  2412  07DC  00CC               	movwf	?___flmul+2
  2413  07DD  085F               	movf	___flmul@prod+1,w
  2414  07DE  00CB               	movwf	?___flmul+1
  2415  07DF  085E               	movf	___flmul@prod,w
  2416  07E0  00CA               	movwf	?___flmul
  2417  07E1                     l538:
  2418  07E1  0008               	return
  2419  07E2                     __end_of___flmul:
  2420                           
  2421                           	psect	text6
  2422  0F36                     __ptext6:	
  2423 ;; *************** function __Umul8_16 *****************
  2424 ;; Defined at:
  2425 ;;		line 4 in file "C:\Program Files\Microchip\xc8\v2.32\pic\sources\c90\common\Umul8_16.c"
  2426 ;; Parameters:    Size  Location     Type
  2427 ;;  multiplier      1    wreg     unsigned char 
  2428 ;;  multiplicand    1    0[COMMON] unsigned char 
  2429 ;; Auto vars:     Size  Location     Type
  2430 ;;  multiplier      1    8[COMMON] unsigned char 
  2431 ;;  word_mpld       2    6[COMMON] unsigned int 
  2432 ;;  product         2    4[COMMON] unsigned int 
  2433 ;; Return value:  Size  Location     Type
  2434 ;;                  2    0[COMMON] unsigned int 
  2435 ;; Registers used:
  2436 ;;		wreg, status,2, status,0
  2437 ;; Tracked objects:
  2438 ;;		On entry : 0/0
  2439 ;;		On exit  : 0/0
  2440 ;;		Unchanged: 0/0
  2441 ;; Data sizes:     COMMON   BANK0   BANK1   BANK3   BANK2
  2442 ;;      Params:         2       0       0       0       0
  2443 ;;      Locals:         5       0       0       0       0
  2444 ;;      Temps:          2       0       0       0       0
  2445 ;;      Totals:         9       0       0       0       0
  2446 ;;Total ram usage:        9 bytes
  2447 ;; Hardware stack levels used: 1
  2448 ;; This function calls:
  2449 ;;		Nothing
  2450 ;; This function is called by:
  2451 ;;		___flmul
  2452 ;; This function uses a non-reentrant model
  2453 ;;
  2454                           
  2455                           
  2456                           ;psect for function __Umul8_16
  2457  0F36                     __Umul8_16:
  2458                           
  2459                           ;incstack = 0
  2460                           ; Regs used in __Umul8_16: [wreg+status,2+status,0]
  2461                           ;__Umul8_16@multiplier stored from wreg
  2462  0F36  00F8               	movwf	__Umul8_16@multiplier
  2463  0F37                     l1123:
  2464  0F37  01F4               	clrf	__Umul8_16@product
  2465  0F38  01F5               	clrf	__Umul8_16@product+1
  2466  0F39                     l1125:
  2467  0F39  0870               	movf	__Umul8_16@multiplicand,w
  2468  0F3A  00F2               	movwf	??__Umul8_16
  2469  0F3B  01F3               	clrf	??__Umul8_16+1
  2470  0F3C  0872               	movf	??__Umul8_16,w
  2471  0F3D  00F6               	movwf	__Umul8_16@word_mpld
  2472  0F3E  0873               	movf	??__Umul8_16+1,w
  2473  0F3F  00F7               	movwf	__Umul8_16@word_mpld+1
  2474  0F40                     l1127:
  2475  0F40  1C78               	btfss	__Umul8_16@multiplier,0
  2476  0F41  2F43               	goto	u1121
  2477  0F42  2F44               	goto	u1120
  2478  0F43                     u1121:
  2479  0F43  2F4A               	goto	l557
  2480  0F44                     u1120:
  2481  0F44                     l1129:
  2482  0F44  0876               	movf	__Umul8_16@word_mpld,w
  2483  0F45  07F4               	addwf	__Umul8_16@product,f
  2484  0F46  1803               	skipnc
  2485  0F47  0AF5               	incf	__Umul8_16@product+1,f
  2486  0F48  0877               	movf	__Umul8_16@word_mpld+1,w
  2487  0F49  07F5               	addwf	__Umul8_16@product+1,f
  2488  0F4A                     l557:
  2489  0F4A  3001               	movlw	1
  2490  0F4B                     u1135:
  2491  0F4B  1003               	clrc
  2492  0F4C  0DF6               	rlf	__Umul8_16@word_mpld,f
  2493  0F4D  0DF7               	rlf	__Umul8_16@word_mpld+1,f
  2494  0F4E  3EFF               	addlw	-1
  2495  0F4F  1D03               	skipz
  2496  0F50  2F4B               	goto	u1135
  2497  0F51  1003               	clrc
  2498  0F52  0CF8               	rrf	__Umul8_16@multiplier,f
  2499  0F53                     l1131:
  2500  0F53  0878               	movf	__Umul8_16@multiplier,w
  2501  0F54  1D03               	btfss	3,2
  2502  0F55  2F57               	goto	u1141
  2503  0F56  2F58               	goto	u1140
  2504  0F57                     u1141:
  2505  0F57  2F40               	goto	l1127
  2506  0F58                     u1140:
  2507  0F58                     l1133:
  2508  0F58  0875               	movf	__Umul8_16@product+1,w
  2509  0F59  00F1               	movwf	?__Umul8_16+1
  2510  0F5A  0874               	movf	__Umul8_16@product,w
  2511  0F5B  00F0               	movwf	?__Umul8_16
  2512  0F5C                     l559:
  2513  0F5C  0008               	return
  2514  0F5D                     __end_of__Umul8_16:
  2515                           
  2516                           	psect	text7
  2517  02A4                     __ptext7:	
  2518 ;; *************** function ___fldiv *****************
  2519 ;; Defined at:
  2520 ;;		line 8 in file "C:\Program Files\Microchip\xc8\v2.32\pic\sources\c90\common\sprcdiv.c"
  2521 ;; Parameters:    Size  Location     Type
  2522 ;;  a               4   16[BANK0 ] unsigned int 
  2523 ;;  b               4   20[BANK0 ] unsigned int 
  2524 ;; Auto vars:     Size  Location     Type
  2525 ;;  grs             4   36[BANK0 ] unsigned long 
  2526 ;;  rem             4   29[BANK0 ] unsigned long 
  2527 ;;  new_exp         2   34[BANK0 ] int 
  2528 ;;  aexp            1   41[BANK0 ] unsigned char 
  2529 ;;  bexp            1   40[BANK0 ] unsigned char 
  2530 ;;  sign            1   33[BANK0 ] unsigned char 
  2531 ;; Return value:  Size  Location     Type
  2532 ;;                  4   16[BANK0 ] unsigned char 
  2533 ;; Registers used:
  2534 ;;		wreg, status,2, status,0, btemp+1
  2535 ;; Tracked objects:
  2536 ;;		On entry : 0/0
  2537 ;;		On exit  : 0/0
  2538 ;;		Unchanged: 0/0
  2539 ;; Data sizes:     COMMON   BANK0   BANK1   BANK3   BANK2
  2540 ;;      Params:         0       8       0       0       0
  2541 ;;      Locals:         0      13       0       0       0
  2542 ;;      Temps:          0       5       0       0       0
  2543 ;;      Totals:         0      26       0       0       0
  2544 ;;Total ram usage:       26 bytes
  2545 ;; Hardware stack levels used: 1
  2546 ;; This function calls:
  2547 ;;		Nothing
  2548 ;; This function is called by:
  2549 ;;		_PWM_Duty
  2550 ;; This function uses a non-reentrant model
  2551 ;;
  2552                           
  2553                           
  2554                           ;psect for function ___fldiv
  2555  02A4                     ___fldiv:
  2556  02A4                     l1213:	
  2557                           ;incstack = 0
  2558                           ; Regs used in ___fldiv: [wreg+status,2+status,0+btemp+1]
  2559                           
  2560  02A4  1283               	bcf	3,5	;RP0=0, select bank0
  2561  02A5  1303               	bcf	3,6	;RP1=0, select bank0
  2562  02A6  0837               	movf	___fldiv@b+3,w
  2563  02A7  3980               	andlw	128
  2564  02A8  00B8               	movwf	??___fldiv
  2565  02A9  0838               	movf	??___fldiv,w
  2566  02AA  00C1               	movwf	___fldiv@sign
  2567  02AB                     l1215:
  2568  02AB  0837               	movf	___fldiv@b+3,w
  2569  02AC  00B8               	movwf	??___fldiv
  2570  02AD  0738               	addwf	??___fldiv,w
  2571  02AE  00B9               	movwf	??___fldiv+1
  2572  02AF  0839               	movf	??___fldiv+1,w
  2573  02B0  00C8               	movwf	___fldiv@bexp
  2574  02B1                     l1217:
  2575  02B1  1FB6               	btfss	___fldiv@b+2,7
  2576  02B2  2AB4               	goto	u1351
  2577  02B3  2AB5               	goto	u1350
  2578  02B4                     u1351:
  2579  02B4  2AB6               	goto	l1221
  2580  02B5                     u1350:
  2581  02B5                     l1219:
  2582  02B5  1448               	bsf	___fldiv@bexp,0
  2583  02B6                     l1221:
  2584  02B6  0848               	movf	___fldiv@bexp,w
  2585  02B7  1903               	btfsc	3,2
  2586  02B8  2ABA               	goto	u1361
  2587  02B9  2ABB               	goto	u1360
  2588  02BA                     u1361:
  2589  02BA  2ACB               	goto	l1231
  2590  02BB                     u1360:
  2591  02BB                     l1223:
  2592  02BB  0A48               	incf	___fldiv@bexp,w
  2593  02BC  1D03               	btfss	3,2
  2594  02BD  2ABF               	goto	u1371
  2595  02BE  2AC0               	goto	u1370
  2596  02BF                     u1371:
  2597  02BF  2AC8               	goto	l1227
  2598  02C0                     u1370:
  2599  02C0                     l1225:
  2600  02C0  3000               	movlw	0
  2601  02C1  00B7               	movwf	___fldiv@b+3
  2602  02C2  3000               	movlw	0
  2603  02C3  00B6               	movwf	___fldiv@b+2
  2604  02C4  3000               	movlw	0
  2605  02C5  00B5               	movwf	___fldiv@b+1
  2606  02C6  3000               	movlw	0
  2607  02C7  00B4               	movwf	___fldiv@b
  2608  02C8                     l1227:
  2609  02C8  17B6               	bsf	___fldiv@b+2,7
  2610  02C9                     l1229:
  2611  02C9  01B7               	clrf	___fldiv@b+3
  2612  02CA  2AD3               	goto	l1233
  2613  02CB                     l1231:
  2614  02CB  3000               	movlw	0
  2615  02CC  00B7               	movwf	___fldiv@b+3
  2616  02CD  3000               	movlw	0
  2617  02CE  00B6               	movwf	___fldiv@b+2
  2618  02CF  3000               	movlw	0
  2619  02D0  00B5               	movwf	___fldiv@b+1
  2620  02D1  3000               	movlw	0
  2621  02D2  00B4               	movwf	___fldiv@b
  2622  02D3                     l1233:
  2623  02D3  0833               	movf	___fldiv@a+3,w
  2624  02D4  3980               	andlw	128
  2625  02D5  00B8               	movwf	??___fldiv
  2626  02D6  0838               	movf	??___fldiv,w
  2627  02D7  06C1               	xorwf	___fldiv@sign,f
  2628  02D8                     l1235:
  2629  02D8  0833               	movf	___fldiv@a+3,w
  2630  02D9  00B8               	movwf	??___fldiv
  2631  02DA  0738               	addwf	??___fldiv,w
  2632  02DB  00B9               	movwf	??___fldiv+1
  2633  02DC  0839               	movf	??___fldiv+1,w
  2634  02DD  00C9               	movwf	___fldiv@aexp
  2635  02DE                     l1237:
  2636  02DE  1FB2               	btfss	___fldiv@a+2,7
  2637  02DF  2AE1               	goto	u1381
  2638  02E0  2AE2               	goto	u1380
  2639  02E1                     u1381:
  2640  02E1  2AE3               	goto	l1241
  2641  02E2                     u1380:
  2642  02E2                     l1239:
  2643  02E2  1449               	bsf	___fldiv@aexp,0
  2644  02E3                     l1241:
  2645  02E3  0849               	movf	___fldiv@aexp,w
  2646  02E4  1903               	btfsc	3,2
  2647  02E5  2AE7               	goto	u1391
  2648  02E6  2AE8               	goto	u1390
  2649  02E7                     u1391:
  2650  02E7  2AF8               	goto	l1251
  2651  02E8                     u1390:
  2652  02E8                     l1243:
  2653  02E8  0A49               	incf	___fldiv@aexp,w
  2654  02E9  1D03               	btfss	3,2
  2655  02EA  2AEC               	goto	u1401
  2656  02EB  2AED               	goto	u1400
  2657  02EC                     u1401:
  2658  02EC  2AF5               	goto	l1247
  2659  02ED                     u1400:
  2660  02ED                     l1245:
  2661  02ED  3000               	movlw	0
  2662  02EE  00B3               	movwf	___fldiv@a+3
  2663  02EF  3000               	movlw	0
  2664  02F0  00B2               	movwf	___fldiv@a+2
  2665  02F1  3000               	movlw	0
  2666  02F2  00B1               	movwf	___fldiv@a+1
  2667  02F3  3000               	movlw	0
  2668  02F4  00B0               	movwf	___fldiv@a
  2669  02F5                     l1247:
  2670  02F5  17B2               	bsf	___fldiv@a+2,7
  2671  02F6                     l1249:
  2672  02F6  01B3               	clrf	___fldiv@a+3
  2673  02F7  2B00               	goto	l498
  2674  02F8                     l1251:
  2675  02F8  3000               	movlw	0
  2676  02F9  00B3               	movwf	___fldiv@a+3
  2677  02FA  3000               	movlw	0
  2678  02FB  00B2               	movwf	___fldiv@a+2
  2679  02FC  3000               	movlw	0
  2680  02FD  00B1               	movwf	___fldiv@a+1
  2681  02FE  3000               	movlw	0
  2682  02FF  00B0               	movwf	___fldiv@a
  2683  0300                     l498:
  2684  0300  0833               	movf	___fldiv@a+3,w
  2685  0301  0432               	iorwf	___fldiv@a+2,w
  2686  0302  0431               	iorwf	___fldiv@a+1,w
  2687  0303  0430               	iorwf	___fldiv@a,w
  2688  0304  1D03               	skipz
  2689  0305  2B07               	goto	u1411
  2690  0306  2B08               	goto	u1410
  2691  0307                     u1411:
  2692  0307  2B21               	goto	l1261
  2693  0308                     u1410:
  2694  0308                     l1253:
  2695  0308  3000               	movlw	0
  2696  0309  00B7               	movwf	___fldiv@b+3
  2697  030A  3000               	movlw	0
  2698  030B  00B6               	movwf	___fldiv@b+2
  2699  030C  3000               	movlw	0
  2700  030D  00B5               	movwf	___fldiv@b+1
  2701  030E  3000               	movlw	0
  2702  030F  00B4               	movwf	___fldiv@b
  2703  0310  3080               	movlw	128
  2704  0311  04B6               	iorwf	___fldiv@b+2,f
  2705  0312  307F               	movlw	127
  2706  0313  04B7               	iorwf	___fldiv@b+3,f
  2707  0314                     l1255:
  2708  0314  0841               	movf	___fldiv@sign,w
  2709  0315  00B8               	movwf	??___fldiv
  2710  0316  0838               	movf	??___fldiv,w
  2711  0317  04B7               	iorwf	___fldiv@b+3,f
  2712  0318                     l1257:
  2713  0318  0837               	movf	___fldiv@b+3,w
  2714  0319  00B3               	movwf	?___fldiv+3
  2715  031A  0836               	movf	___fldiv@b+2,w
  2716  031B  00B2               	movwf	?___fldiv+2
  2717  031C  0835               	movf	___fldiv@b+1,w
  2718  031D  00B1               	movwf	?___fldiv+1
  2719  031E  0834               	movf	___fldiv@b,w
  2720  031F  00B0               	movwf	?___fldiv
  2721  0320  2C80               	goto	l500
  2722  0321                     l1261:
  2723  0321  0848               	movf	___fldiv@bexp,w
  2724  0322  1D03               	btfss	3,2
  2725  0323  2B25               	goto	u1421
  2726  0324  2B26               	goto	u1420
  2727  0325                     u1421:
  2728  0325  2B2F               	goto	l1267
  2729  0326                     u1420:
  2730  0326                     l1263:
  2731  0326  3000               	movlw	0
  2732  0327  00B3               	movwf	?___fldiv+3
  2733  0328  3000               	movlw	0
  2734  0329  00B2               	movwf	?___fldiv+2
  2735  032A  3000               	movlw	0
  2736  032B  00B1               	movwf	?___fldiv+1
  2737  032C  3000               	movlw	0
  2738  032D  00B0               	movwf	?___fldiv
  2739  032E  2C80               	goto	l500
  2740  032F                     l1267:
  2741  032F  0848               	movf	___fldiv@bexp,w
  2742  0330  00B8               	movwf	??___fldiv
  2743  0331  01B9               	clrf	??___fldiv+1
  2744  0332  0839               	movf	??___fldiv+1,w
  2745  0333  00BB               	movwf	??___fldiv+3
  2746  0334  0849               	movf	___fldiv@aexp,w
  2747  0335  0238               	subwf	??___fldiv,w
  2748  0336  00BA               	movwf	??___fldiv+2
  2749  0337  1C03               	skipc
  2750  0338  03BB               	decf	??___fldiv+3,f
  2751  0339  083A               	movf	??___fldiv+2,w
  2752  033A  3E7F               	addlw	127
  2753  033B  00C2               	movwf	___fldiv@new_exp
  2754  033C  083B               	movf	??___fldiv+3,w
  2755  033D  1803               	skipnc
  2756  033E  3E01               	addlw	1
  2757  033F  3E00               	addlw	0
  2758  0340  00C3               	movwf	___fldiv@new_exp+1
  2759  0341                     l1269:
  2760  0341  0837               	movf	___fldiv@b+3,w
  2761  0342  00C0               	movwf	___fldiv@rem+3
  2762  0343  0836               	movf	___fldiv@b+2,w
  2763  0344  00BF               	movwf	___fldiv@rem+2
  2764  0345  0835               	movf	___fldiv@b+1,w
  2765  0346  00BE               	movwf	___fldiv@rem+1
  2766  0347  0834               	movf	___fldiv@b,w
  2767  0348  00BD               	movwf	___fldiv@rem
  2768  0349                     l1271:
  2769  0349  3000               	movlw	0
  2770  034A  00B7               	movwf	___fldiv@b+3
  2771  034B  3000               	movlw	0
  2772  034C  00B6               	movwf	___fldiv@b+2
  2773  034D  3000               	movlw	0
  2774  034E  00B5               	movwf	___fldiv@b+1
  2775  034F  3000               	movlw	0
  2776  0350  00B4               	movwf	___fldiv@b
  2777  0351                     l1273:
  2778  0351  3000               	movlw	0
  2779  0352  00C7               	movwf	___fldiv@grs+3
  2780  0353  3000               	movlw	0
  2781  0354  00C6               	movwf	___fldiv@grs+2
  2782  0355  3000               	movlw	0
  2783  0356  00C5               	movwf	___fldiv@grs+1
  2784  0357  3000               	movlw	0
  2785  0358  00C4               	movwf	___fldiv@grs
  2786  0359                     l1275:
  2787  0359  01C9               	clrf	___fldiv@aexp
  2788  035A  2BA5               	goto	l1295
  2789  035B                     l1277:
  2790  035B  0849               	movf	___fldiv@aexp,w
  2791  035C  1903               	btfsc	3,2
  2792  035D  2B5F               	goto	u1431
  2793  035E  2B60               	goto	u1430
  2794  035F                     u1431:
  2795  035F  2B80               	goto	l1287
  2796  0360                     u1430:
  2797  0360                     l1279:
  2798  0360  3001               	movlw	1
  2799  0361  00B8               	movwf	??___fldiv
  2800  0362                     u1445:
  2801  0362  1003               	clrc
  2802  0363  0DBD               	rlf	___fldiv@rem,f
  2803  0364  0DBE               	rlf	___fldiv@rem+1,f
  2804  0365  0DBF               	rlf	___fldiv@rem+2,f
  2805  0366  0DC0               	rlf	___fldiv@rem+3,f
  2806  0367  0BB8               	decfsz	??___fldiv,f
  2807  0368  2B62               	goto	u1445
  2808  0369  3001               	movlw	1
  2809  036A  00B8               	movwf	??___fldiv
  2810  036B                     u1455:
  2811  036B  1003               	clrc
  2812  036C  0DB4               	rlf	___fldiv@b,f
  2813  036D  0DB5               	rlf	___fldiv@b+1,f
  2814  036E  0DB6               	rlf	___fldiv@b+2,f
  2815  036F  0DB7               	rlf	___fldiv@b+3,f
  2816  0370  0BB8               	decfsz	??___fldiv,f
  2817  0371  2B6B               	goto	u1455
  2818  0372                     l1281:
  2819  0372  1FC7               	btfss	___fldiv@grs+3,7
  2820  0373  2B75               	goto	u1461
  2821  0374  2B76               	goto	u1460
  2822  0375                     u1461:
  2823  0375  2B77               	goto	l1285
  2824  0376                     u1460:
  2825  0376                     l1283:
  2826  0376  1434               	bsf	___fldiv@b,0
  2827  0377                     l1285:
  2828  0377  3001               	movlw	1
  2829  0378  00B8               	movwf	??___fldiv
  2830  0379                     u1475:
  2831  0379  1003               	clrc
  2832  037A  0DC4               	rlf	___fldiv@grs,f
  2833  037B  0DC5               	rlf	___fldiv@grs+1,f
  2834  037C  0DC6               	rlf	___fldiv@grs+2,f
  2835  037D  0DC7               	rlf	___fldiv@grs+3,f
  2836  037E  0BB8               	decfsz	??___fldiv,f
  2837  037F  2B79               	goto	u1475
  2838  0380                     l1287:
  2839  0380  0833               	movf	___fldiv@a+3,w
  2840  0381  0240               	subwf	___fldiv@rem+3,w
  2841  0382  1D03               	skipz
  2842  0383  2B8E               	goto	u1485
  2843  0384  0832               	movf	___fldiv@a+2,w
  2844  0385  023F               	subwf	___fldiv@rem+2,w
  2845  0386  1D03               	skipz
  2846  0387  2B8E               	goto	u1485
  2847  0388  0831               	movf	___fldiv@a+1,w
  2848  0389  023E               	subwf	___fldiv@rem+1,w
  2849  038A  1D03               	skipz
  2850  038B  2B8E               	goto	u1485
  2851  038C  0830               	movf	___fldiv@a,w
  2852  038D  023D               	subwf	___fldiv@rem,w
  2853  038E                     u1485:
  2854  038E  1C03               	skipc
  2855  038F  2B91               	goto	u1481
  2856  0390  2B92               	goto	u1480
  2857  0391                     u1481:
  2858  0391  2BA1               	goto	l1293
  2859  0392                     u1480:
  2860  0392                     l1289:
  2861  0392  1747               	bsf	___fldiv@grs+3,6
  2862  0393                     l1291:
  2863  0393  0830               	movf	___fldiv@a,w
  2864  0394  02BD               	subwf	___fldiv@rem,f
  2865  0395  0831               	movf	___fldiv@a+1,w
  2866  0396  1C03               	skipc
  2867  0397  0F31               	incfsz	___fldiv@a+1,w
  2868  0398  02BE               	subwf	___fldiv@rem+1,f
  2869  0399  0832               	movf	___fldiv@a+2,w
  2870  039A  1C03               	skipc
  2871  039B  0F32               	incfsz	___fldiv@a+2,w
  2872  039C  02BF               	subwf	___fldiv@rem+2,f
  2873  039D  0833               	movf	___fldiv@a+3,w
  2874  039E  1C03               	skipc
  2875  039F  0F33               	incfsz	___fldiv@a+3,w
  2876  03A0  02C0               	subwf	___fldiv@rem+3,f
  2877  03A1                     l1293:
  2878  03A1  3001               	movlw	1
  2879  03A2  00B8               	movwf	??___fldiv
  2880  03A3  0838               	movf	??___fldiv,w
  2881  03A4  07C9               	addwf	___fldiv@aexp,f
  2882  03A5                     l1295:
  2883  03A5  301A               	movlw	26
  2884  03A6  0249               	subwf	___fldiv@aexp,w
  2885  03A7  1C03               	skipc
  2886  03A8  2BAA               	goto	u1491
  2887  03A9  2BAB               	goto	u1490
  2888  03AA                     u1491:
  2889  03AA  2B5B               	goto	l1277
  2890  03AB                     u1490:
  2891  03AB                     l1297:
  2892  03AB  0840               	movf	___fldiv@rem+3,w
  2893  03AC  043F               	iorwf	___fldiv@rem+2,w
  2894  03AD  043E               	iorwf	___fldiv@rem+1,w
  2895  03AE  043D               	iorwf	___fldiv@rem,w
  2896  03AF  1903               	skipnz
  2897  03B0  2BB2               	goto	u1501
  2898  03B1  2BB3               	goto	u1500
  2899  03B2                     u1501:
  2900  03B2  2BD2               	goto	l1311
  2901  03B3                     u1500:
  2902  03B3                     l1299:
  2903  03B3  1444               	bsf	___fldiv@grs,0
  2904  03B4  2BD2               	goto	l1311
  2905  03B5                     l1301:
  2906  03B5  3001               	movlw	1
  2907  03B6  00B8               	movwf	??___fldiv
  2908  03B7                     u1515:
  2909  03B7  1003               	clrc
  2910  03B8  0DB4               	rlf	___fldiv@b,f
  2911  03B9  0DB5               	rlf	___fldiv@b+1,f
  2912  03BA  0DB6               	rlf	___fldiv@b+2,f
  2913  03BB  0DB7               	rlf	___fldiv@b+3,f
  2914  03BC  0BB8               	decfsz	??___fldiv,f
  2915  03BD  2BB7               	goto	u1515
  2916  03BE                     l1303:
  2917  03BE  1FC7               	btfss	___fldiv@grs+3,7
  2918  03BF  2BC1               	goto	u1521
  2919  03C0  2BC2               	goto	u1520
  2920  03C1                     u1521:
  2921  03C1  2BC3               	goto	l1307
  2922  03C2                     u1520:
  2923  03C2                     l1305:
  2924  03C2  1434               	bsf	___fldiv@b,0
  2925  03C3                     l1307:
  2926  03C3  3001               	movlw	1
  2927  03C4  00B8               	movwf	??___fldiv
  2928  03C5                     u1535:
  2929  03C5  1003               	clrc
  2930  03C6  0DC4               	rlf	___fldiv@grs,f
  2931  03C7  0DC5               	rlf	___fldiv@grs+1,f
  2932  03C8  0DC6               	rlf	___fldiv@grs+2,f
  2933  03C9  0DC7               	rlf	___fldiv@grs+3,f
  2934  03CA  0BB8               	decfsz	??___fldiv,f
  2935  03CB  2BC5               	goto	u1535
  2936  03CC                     l1309:
  2937  03CC  30FF               	movlw	255
  2938  03CD  07C2               	addwf	___fldiv@new_exp,f
  2939  03CE  1803               	skipnc
  2940  03CF  0AC3               	incf	___fldiv@new_exp+1,f
  2941  03D0  30FF               	movlw	255
  2942  03D1  07C3               	addwf	___fldiv@new_exp+1,f
  2943  03D2                     l1311:
  2944  03D2  1FB6               	btfss	___fldiv@b+2,7
  2945  03D3  2BD5               	goto	u1541
  2946  03D4  2BD6               	goto	u1540
  2947  03D5                     u1541:
  2948  03D5  2BB5               	goto	l1301
  2949  03D6                     u1540:
  2950  03D6                     l1313:
  2951  03D6  01C9               	clrf	___fldiv@aexp
  2952  03D7                     l1315:
  2953  03D7  1FC7               	btfss	___fldiv@grs+3,7
  2954  03D8  2BDA               	goto	u1551
  2955  03D9  2BDB               	goto	u1550
  2956  03DA                     u1551:
  2957  03DA  2BF7               	goto	l1323
  2958  03DB                     u1550:
  2959  03DB                     l1317:
  2960  03DB  30FF               	movlw	255
  2961  03DC  0544               	andwf	___fldiv@grs,w
  2962  03DD  00B8               	movwf	??___fldiv
  2963  03DE  30FF               	movlw	255
  2964  03DF  0545               	andwf	___fldiv@grs+1,w
  2965  03E0  00B9               	movwf	??___fldiv+1
  2966  03E1  30FF               	movlw	255
  2967  03E2  0546               	andwf	___fldiv@grs+2,w
  2968  03E3  00BA               	movwf	??___fldiv+2
  2969  03E4  307F               	movlw	127
  2970  03E5  0547               	andwf	___fldiv@grs+3,w
  2971  03E6  00BB               	movwf	??___fldiv+3
  2972  03E7  083B               	movf	??___fldiv+3,w
  2973  03E8  043A               	iorwf	??___fldiv+2,w
  2974  03E9  0439               	iorwf	??___fldiv+1,w
  2975  03EA  0438               	iorwf	??___fldiv,w
  2976  03EB  1903               	skipnz
  2977  03EC  2BEE               	goto	u1561
  2978  03ED  2BEF               	goto	u1560
  2979  03EE                     u1561:
  2980  03EE  2BF2               	goto	l514
  2981  03EF                     u1560:
  2982  03EF                     l1319:
  2983  03EF  01C9               	clrf	___fldiv@aexp
  2984  03F0  0AC9               	incf	___fldiv@aexp,f
  2985  03F1  2BF7               	goto	l1323
  2986  03F2                     l514:
  2987  03F2  1C34               	btfss	___fldiv@b,0
  2988  03F3  2BF5               	goto	u1571
  2989  03F4  2BF6               	goto	u1570
  2990  03F5                     u1571:
  2991  03F5  2BF7               	goto	l1323
  2992  03F6                     u1570:
  2993  03F6  2BEF               	goto	l1319
  2994  03F7                     l1323:
  2995  03F7  0849               	movf	___fldiv@aexp,w
  2996  03F8  1903               	btfsc	3,2
  2997  03F9  2BFB               	goto	u1581
  2998  03FA  2BFC               	goto	u1580
  2999  03FB                     u1581:
  3000  03FB  2C2D               	goto	l1333
  3001  03FC                     u1580:
  3002  03FC                     l1325:
  3003  03FC  3001               	movlw	1
  3004  03FD  07B4               	addwf	___fldiv@b,f
  3005  03FE  3000               	movlw	0
  3006  03FF  1803               	skipnc
  3007  0400  3001               	movlw	1
  3008  0401  07B5               	addwf	___fldiv@b+1,f
  3009  0402  3000               	movlw	0
  3010  0403  1803               	skipnc
  3011  0404  3001               	movlw	1
  3012  0405  07B6               	addwf	___fldiv@b+2,f
  3013  0406  3000               	movlw	0
  3014  0407  1803               	skipnc
  3015  0408  3001               	movlw	1
  3016  0409  07B7               	addwf	___fldiv@b+3,f
  3017  040A                     l1327:
  3018  040A  1C37               	btfss	___fldiv@b+3,0
  3019  040B  2C0D               	goto	u1591
  3020  040C  2C0E               	goto	u1590
  3021  040D                     u1591:
  3022  040D  2C2D               	goto	l1333
  3023  040E                     u1590:
  3024  040E                     l1329:
  3025  040E  0834               	movf	___fldiv@b,w
  3026  040F  00B8               	movwf	??___fldiv
  3027  0410  0835               	movf	___fldiv@b+1,w
  3028  0411  00B9               	movwf	??___fldiv+1
  3029  0412  0836               	movf	___fldiv@b+2,w
  3030  0413  00BA               	movwf	??___fldiv+2
  3031  0414  0837               	movf	___fldiv@b+3,w
  3032  0415  00BB               	movwf	??___fldiv+3
  3033  0416  3001               	movlw	1
  3034  0417  00BC               	movwf	??___fldiv+4
  3035  0418                     u1605:
  3036  0418  0D3B               	rlf	??___fldiv+3,w
  3037  0419  0CBB               	rrf	??___fldiv+3,f
  3038  041A  0CBA               	rrf	??___fldiv+2,f
  3039  041B  0CB9               	rrf	??___fldiv+1,f
  3040  041C  0CB8               	rrf	??___fldiv,f
  3041  041D                     u1600:
  3042  041D  0BBC               	decfsz	??___fldiv+4,f
  3043  041E  2C18               	goto	u1605
  3044  041F  083B               	movf	??___fldiv+3,w
  3045  0420  00B7               	movwf	___fldiv@b+3
  3046  0421  083A               	movf	??___fldiv+2,w
  3047  0422  00B6               	movwf	___fldiv@b+2
  3048  0423  0839               	movf	??___fldiv+1,w
  3049  0424  00B5               	movwf	___fldiv@b+1
  3050  0425  0838               	movf	??___fldiv,w
  3051  0426  00B4               	movwf	___fldiv@b
  3052  0427                     l1331:
  3053  0427  3001               	movlw	1
  3054  0428  07C2               	addwf	___fldiv@new_exp,f
  3055  0429  1803               	skipnc
  3056  042A  0AC3               	incf	___fldiv@new_exp+1,f
  3057  042B  3000               	movlw	0
  3058  042C  07C3               	addwf	___fldiv@new_exp+1,f
  3059  042D                     l1333:
  3060  042D  0843               	movf	___fldiv@new_exp+1,w
  3061  042E  3A80               	xorlw	128
  3062  042F  00FF               	movwf	btemp+1
  3063  0430  3080               	movlw	128
  3064  0431  027F               	subwf	btemp+1,w
  3065  0432  1D03               	skipz
  3066  0433  2C36               	goto	u1615
  3067  0434  30FF               	movlw	255
  3068  0435  0242               	subwf	___fldiv@new_exp,w
  3069  0436                     u1615:
  3070  0436  1C03               	skipc
  3071  0437  2C39               	goto	u1611
  3072  0438  2C3A               	goto	u1610
  3073  0439                     u1611:
  3074  0439  2C48               	goto	l1337
  3075  043A                     u1610:
  3076  043A                     l1335:
  3077  043A  30FF               	movlw	255
  3078  043B  1283               	bcf	3,5	;RP0=0, select bank0
  3079  043C  1303               	bcf	3,6	;RP1=0, select bank0
  3080  043D  00C2               	movwf	___fldiv@new_exp
  3081  043E  3000               	movlw	0
  3082  043F  00C3               	movwf	___fldiv@new_exp+1
  3083  0440  3000               	movlw	0
  3084  0441  00B7               	movwf	___fldiv@b+3
  3085  0442  3000               	movlw	0
  3086  0443  00B6               	movwf	___fldiv@b+2
  3087  0444  3000               	movlw	0
  3088  0445  00B5               	movwf	___fldiv@b+1
  3089  0446  3000               	movlw	0
  3090  0447  00B4               	movwf	___fldiv@b
  3091  0448                     l1337:
  3092  0448  1283               	bcf	3,5	;RP0=0, select bank0
  3093  0449  1303               	bcf	3,6	;RP1=0, select bank0
  3094  044A  0843               	movf	___fldiv@new_exp+1,w
  3095  044B  3A80               	xorlw	128
  3096  044C  00FF               	movwf	btemp+1
  3097  044D  3080               	movlw	128
  3098  044E  027F               	subwf	btemp+1,w
  3099  044F  1D03               	skipz
  3100  0450  2C53               	goto	u1625
  3101  0451  3001               	movlw	1
  3102  0452  0242               	subwf	___fldiv@new_exp,w
  3103  0453                     u1625:
  3104  0453  1803               	skipnc
  3105  0454  2C56               	goto	u1621
  3106  0455  2C57               	goto	u1620
  3107  0456                     u1621:
  3108  0456  2C64               	goto	l520
  3109  0457                     u1620:
  3110  0457                     l1339:
  3111  0457  1283               	bcf	3,5	;RP0=0, select bank0
  3112  0458  1303               	bcf	3,6	;RP1=0, select bank0
  3113  0459  01C2               	clrf	___fldiv@new_exp
  3114  045A  01C3               	clrf	___fldiv@new_exp+1
  3115  045B                     l1341:
  3116  045B  3000               	movlw	0
  3117  045C  00B7               	movwf	___fldiv@b+3
  3118  045D  3000               	movlw	0
  3119  045E  00B6               	movwf	___fldiv@b+2
  3120  045F  3000               	movlw	0
  3121  0460  00B5               	movwf	___fldiv@b+1
  3122  0461  3000               	movlw	0
  3123  0462  00B4               	movwf	___fldiv@b
  3124  0463                     l1343:
  3125  0463  01C1               	clrf	___fldiv@sign
  3126  0464                     l520:
  3127  0464  1283               	bcf	3,5	;RP0=0, select bank0
  3128  0465  1303               	bcf	3,6	;RP1=0, select bank0
  3129  0466  0842               	movf	___fldiv@new_exp,w
  3130  0467  00B8               	movwf	??___fldiv
  3131  0468  0838               	movf	??___fldiv,w
  3132  0469  00C8               	movwf	___fldiv@bexp
  3133  046A                     l1345:
  3134  046A  1C48               	btfss	___fldiv@bexp,0
  3135  046B  2C6D               	goto	u1631
  3136  046C  2C6E               	goto	u1630
  3137  046D                     u1631:
  3138  046D  2C70               	goto	l1349
  3139  046E                     u1630:
  3140  046E                     l1347:
  3141  046E  17B6               	bsf	___fldiv@b+2,7
  3142  046F  2C74               	goto	l522
  3143  0470                     l1349:
  3144  0470  307F               	movlw	127
  3145  0471  00B8               	movwf	??___fldiv
  3146  0472  0838               	movf	??___fldiv,w
  3147  0473  05B6               	andwf	___fldiv@b+2,f
  3148  0474                     l522:
  3149  0474  0848               	movf	___fldiv@bexp,w
  3150  0475  00B8               	movwf	??___fldiv
  3151  0476  1003               	clrc
  3152  0477  0C38               	rrf	??___fldiv,w
  3153  0478  00B9               	movwf	??___fldiv+1
  3154  0479  0839               	movf	??___fldiv+1,w
  3155  047A  00B7               	movwf	___fldiv@b+3
  3156  047B  0841               	movf	___fldiv@sign,w
  3157  047C  00B8               	movwf	??___fldiv
  3158  047D  0838               	movf	??___fldiv,w
  3159  047E  04B7               	iorwf	___fldiv@b+3,f
  3160  047F  2B18               	goto	l1257
  3161  0480                     l500:
  3162  0480  0008               	return
  3163  0481                     __end_of___fldiv:
  3164                           
  3165                           	psect	text8
  3166  008F                     __ptext8:	
  3167 ;; *************** function ___aldiv *****************
  3168 ;; Defined at:
  3169 ;;		line 5 in file "C:\Program Files\Microchip\xc8\v2.32\pic\sources\c90\common\aldiv.c"
  3170 ;; Parameters:    Size  Location     Type
  3171 ;;  divisor         4    0[COMMON] long 
  3172 ;;  dividend        4    4[COMMON] long 
  3173 ;; Auto vars:     Size  Location     Type
  3174 ;;  quotient        4    2[BANK0 ] long 
  3175 ;;  sign            1    1[BANK0 ] unsigned char 
  3176 ;;  counter         1    0[BANK0 ] unsigned char 
  3177 ;; Return value:  Size  Location     Type
  3178 ;;                  4    0[COMMON] long 
  3179 ;; Registers used:
  3180 ;;		wreg, status,2, status,0
  3181 ;; Tracked objects:
  3182 ;;		On entry : 0/0
  3183 ;;		On exit  : 0/0
  3184 ;;		Unchanged: 0/0
  3185 ;; Data sizes:     COMMON   BANK0   BANK1   BANK3   BANK2
  3186 ;;      Params:         8       0       0       0       0
  3187 ;;      Locals:         0       6       0       0       0
  3188 ;;      Temps:          1       0       0       0       0
  3189 ;;      Totals:         9       6       0       0       0
  3190 ;;Total ram usage:       15 bytes
  3191 ;; Hardware stack levels used: 1
  3192 ;; This function calls:
  3193 ;;		Nothing
  3194 ;; This function is called by:
  3195 ;;		_PWM_Initialize
  3196 ;;		_PWM_Duty
  3197 ;; This function uses a non-reentrant model
  3198 ;;
  3199                           
  3200                           
  3201                           ;psect for function ___aldiv
  3202  008F                     ___aldiv:
  3203  008F                     l1137:	
  3204                           ;incstack = 0
  3205                           ; Regs used in ___aldiv: [wreg+status,2+status,0]
  3206                           
  3207  008F  1283               	bcf	3,5	;RP0=0, select bank0
  3208  0090  1303               	bcf	3,6	;RP1=0, select bank0
  3209  0091  01A1               	clrf	___aldiv@sign
  3210  0092                     l1139:
  3211  0092  1FF3               	btfss	___aldiv@divisor+3,7
  3212  0093  2895               	goto	u1151
  3213  0094  2896               	goto	u1150
  3214  0095                     u1151:
  3215  0095  28A3               	goto	l214
  3216  0096                     u1150:
  3217  0096                     l1141:
  3218  0096  09F0               	comf	___aldiv@divisor,f
  3219  0097  09F1               	comf	___aldiv@divisor+1,f
  3220  0098  09F2               	comf	___aldiv@divisor+2,f
  3221  0099  09F3               	comf	___aldiv@divisor+3,f
  3222  009A  0AF0               	incf	___aldiv@divisor,f
  3223  009B  1903               	skipnz
  3224  009C  0AF1               	incf	___aldiv@divisor+1,f
  3225  009D  1903               	skipnz
  3226  009E  0AF2               	incf	___aldiv@divisor+2,f
  3227  009F  1903               	skipnz
  3228  00A0  0AF3               	incf	___aldiv@divisor+3,f
  3229  00A1  01A1               	clrf	___aldiv@sign
  3230  00A2  0AA1               	incf	___aldiv@sign,f
  3231  00A3                     l214:
  3232  00A3  1FF7               	btfss	___aldiv@dividend+3,7
  3233  00A4  28A6               	goto	u1161
  3234  00A5  28A7               	goto	u1160
  3235  00A6                     u1161:
  3236  00A6  28B6               	goto	l1147
  3237  00A7                     u1160:
  3238  00A7                     l1143:
  3239  00A7  09F4               	comf	___aldiv@dividend,f
  3240  00A8  09F5               	comf	___aldiv@dividend+1,f
  3241  00A9  09F6               	comf	___aldiv@dividend+2,f
  3242  00AA  09F7               	comf	___aldiv@dividend+3,f
  3243  00AB  0AF4               	incf	___aldiv@dividend,f
  3244  00AC  1903               	skipnz
  3245  00AD  0AF5               	incf	___aldiv@dividend+1,f
  3246  00AE  1903               	skipnz
  3247  00AF  0AF6               	incf	___aldiv@dividend+2,f
  3248  00B0  1903               	skipnz
  3249  00B1  0AF7               	incf	___aldiv@dividend+3,f
  3250  00B2                     l1145:
  3251  00B2  3001               	movlw	1
  3252  00B3  00F8               	movwf	??___aldiv
  3253  00B4  0878               	movf	??___aldiv,w
  3254  00B5  06A1               	xorwf	___aldiv@sign,f
  3255  00B6                     l1147:
  3256  00B6  3000               	movlw	0
  3257  00B7  00A5               	movwf	___aldiv@quotient+3
  3258  00B8  3000               	movlw	0
  3259  00B9  00A4               	movwf	___aldiv@quotient+2
  3260  00BA  3000               	movlw	0
  3261  00BB  00A3               	movwf	___aldiv@quotient+1
  3262  00BC  3000               	movlw	0
  3263  00BD  00A2               	movwf	___aldiv@quotient
  3264  00BE                     l1149:
  3265  00BE  0873               	movf	___aldiv@divisor+3,w
  3266  00BF  0472               	iorwf	___aldiv@divisor+2,w
  3267  00C0  0471               	iorwf	___aldiv@divisor+1,w
  3268  00C1  0470               	iorwf	___aldiv@divisor,w
  3269  00C2  1903               	skipnz
  3270  00C3  28C5               	goto	u1171
  3271  00C4  28C6               	goto	u1170
  3272  00C5                     u1171:
  3273  00C5  2913               	goto	l1169
  3274  00C6                     u1170:
  3275  00C6                     l1151:
  3276  00C6  01A0               	clrf	___aldiv@counter
  3277  00C7  0AA0               	incf	___aldiv@counter,f
  3278  00C8  28D6               	goto	l1155
  3279  00C9                     l1153:
  3280  00C9  3001               	movlw	1
  3281  00CA  00F8               	movwf	??___aldiv
  3282  00CB                     u1185:
  3283  00CB  1003               	clrc
  3284  00CC  0DF0               	rlf	___aldiv@divisor,f
  3285  00CD  0DF1               	rlf	___aldiv@divisor+1,f
  3286  00CE  0DF2               	rlf	___aldiv@divisor+2,f
  3287  00CF  0DF3               	rlf	___aldiv@divisor+3,f
  3288  00D0  0BF8               	decfsz	??___aldiv,f
  3289  00D1  28CB               	goto	u1185
  3290  00D2  3001               	movlw	1
  3291  00D3  00F8               	movwf	??___aldiv
  3292  00D4  0878               	movf	??___aldiv,w
  3293  00D5  07A0               	addwf	___aldiv@counter,f
  3294  00D6                     l1155:
  3295  00D6  1FF3               	btfss	___aldiv@divisor+3,7
  3296  00D7  28D9               	goto	u1191
  3297  00D8  28DA               	goto	u1190
  3298  00D9                     u1191:
  3299  00D9  28C9               	goto	l1153
  3300  00DA                     u1190:
  3301  00DA                     l1157:
  3302  00DA  3001               	movlw	1
  3303  00DB  00F8               	movwf	??___aldiv
  3304  00DC                     u1205:
  3305  00DC  1003               	clrc
  3306  00DD  0DA2               	rlf	___aldiv@quotient,f
  3307  00DE  0DA3               	rlf	___aldiv@quotient+1,f
  3308  00DF  0DA4               	rlf	___aldiv@quotient+2,f
  3309  00E0  0DA5               	rlf	___aldiv@quotient+3,f
  3310  00E1  0BF8               	decfsz	??___aldiv,f
  3311  00E2  28DC               	goto	u1205
  3312  00E3                     l1159:
  3313  00E3  0873               	movf	___aldiv@divisor+3,w
  3314  00E4  0277               	subwf	___aldiv@dividend+3,w
  3315  00E5  1D03               	skipz
  3316  00E6  28F1               	goto	u1215
  3317  00E7  0872               	movf	___aldiv@divisor+2,w
  3318  00E8  0276               	subwf	___aldiv@dividend+2,w
  3319  00E9  1D03               	skipz
  3320  00EA  28F1               	goto	u1215
  3321  00EB  0871               	movf	___aldiv@divisor+1,w
  3322  00EC  0275               	subwf	___aldiv@dividend+1,w
  3323  00ED  1D03               	skipz
  3324  00EE  28F1               	goto	u1215
  3325  00EF  0870               	movf	___aldiv@divisor,w
  3326  00F0  0274               	subwf	___aldiv@dividend,w
  3327  00F1                     u1215:
  3328  00F1  1C03               	skipc
  3329  00F2  28F4               	goto	u1211
  3330  00F3  28F5               	goto	u1210
  3331  00F4                     u1211:
  3332  00F4  2904               	goto	l1165
  3333  00F5                     u1210:
  3334  00F5                     l1161:
  3335  00F5  0870               	movf	___aldiv@divisor,w
  3336  00F6  02F4               	subwf	___aldiv@dividend,f
  3337  00F7  0871               	movf	___aldiv@divisor+1,w
  3338  00F8  1C03               	skipc
  3339  00F9  0F71               	incfsz	___aldiv@divisor+1,w
  3340  00FA  02F5               	subwf	___aldiv@dividend+1,f
  3341  00FB  0872               	movf	___aldiv@divisor+2,w
  3342  00FC  1C03               	skipc
  3343  00FD  0F72               	incfsz	___aldiv@divisor+2,w
  3344  00FE  02F6               	subwf	___aldiv@dividend+2,f
  3345  00FF  0873               	movf	___aldiv@divisor+3,w
  3346  0100  1C03               	skipc
  3347  0101  0F73               	incfsz	___aldiv@divisor+3,w
  3348  0102  02F7               	subwf	___aldiv@dividend+3,f
  3349  0103                     l1163:
  3350  0103  1422               	bsf	___aldiv@quotient,0
  3351  0104                     l1165:
  3352  0104  3001               	movlw	1
  3353  0105                     u1225:
  3354  0105  1003               	clrc
  3355  0106  0CF3               	rrf	___aldiv@divisor+3,f
  3356  0107  0CF2               	rrf	___aldiv@divisor+2,f
  3357  0108  0CF1               	rrf	___aldiv@divisor+1,f
  3358  0109  0CF0               	rrf	___aldiv@divisor,f
  3359  010A  3EFF               	addlw	-1
  3360  010B  1D03               	skipz
  3361  010C  2905               	goto	u1225
  3362  010D                     l1167:
  3363  010D  3001               	movlw	1
  3364  010E  02A0               	subwf	___aldiv@counter,f
  3365  010F  1D03               	btfss	3,2
  3366  0110  2912               	goto	u1231
  3367  0111  2913               	goto	u1230
  3368  0112                     u1231:
  3369  0112  28DA               	goto	l1157
  3370  0113                     u1230:
  3371  0113                     l1169:
  3372  0113  0821               	movf	___aldiv@sign,w
  3373  0114  1903               	btfsc	3,2
  3374  0115  2917               	goto	u1241
  3375  0116  2918               	goto	u1240
  3376  0117                     u1241:
  3377  0117  2923               	goto	l1173
  3378  0118                     u1240:
  3379  0118                     l1171:
  3380  0118  09A2               	comf	___aldiv@quotient,f
  3381  0119  09A3               	comf	___aldiv@quotient+1,f
  3382  011A  09A4               	comf	___aldiv@quotient+2,f
  3383  011B  09A5               	comf	___aldiv@quotient+3,f
  3384  011C  0AA2               	incf	___aldiv@quotient,f
  3385  011D  1903               	skipnz
  3386  011E  0AA3               	incf	___aldiv@quotient+1,f
  3387  011F  1903               	skipnz
  3388  0120  0AA4               	incf	___aldiv@quotient+2,f
  3389  0121  1903               	skipnz
  3390  0122  0AA5               	incf	___aldiv@quotient+3,f
  3391  0123                     l1173:
  3392  0123  0825               	movf	___aldiv@quotient+3,w
  3393  0124  00F3               	movwf	?___aldiv+3
  3394  0125  0824               	movf	___aldiv@quotient+2,w
  3395  0126  00F2               	movwf	?___aldiv+2
  3396  0127  0823               	movf	___aldiv@quotient+1,w
  3397  0128  00F1               	movwf	?___aldiv+1
  3398  0129  0822               	movf	___aldiv@quotient,w
  3399  012A  00F0               	movwf	?___aldiv
  3400  012B                     l224:
  3401  012B  0008               	return
  3402  012C                     __end_of___aldiv:
  3403                           
  3404                           	psect	text9
  3405  0F5D                     __ptext9:	
  3406 ;; *************** function _ADC_Read *****************
  3407 ;; Defined at:
  3408 ;;		line 43 in file "newmain.c"
  3409 ;; Parameters:    Size  Location     Type
  3410 ;;  channel         1    wreg     unsigned char 
  3411 ;; Auto vars:     Size  Location     Type
  3412 ;;  channel         1    4[COMMON] unsigned char 
  3413 ;; Return value:  Size  Location     Type
  3414 ;;                  2    0[COMMON] unsigned int 
  3415 ;; Registers used:
  3416 ;;		wreg, status,2, status,0
  3417 ;; Tracked objects:
  3418 ;;		On entry : 0/0
  3419 ;;		On exit  : 0/0
  3420 ;;		Unchanged: 0/0
  3421 ;; Data sizes:     COMMON   BANK0   BANK1   BANK3   BANK2
  3422 ;;      Params:         2       0       0       0       0
  3423 ;;      Locals:         1       0       0       0       0
  3424 ;;      Temps:          2       0       0       0       0
  3425 ;;      Totals:         5       0       0       0       0
  3426 ;;Total ram usage:        5 bytes
  3427 ;; Hardware stack levels used: 1
  3428 ;; This function calls:
  3429 ;;		Nothing
  3430 ;; This function is called by:
  3431 ;;		_main
  3432 ;; This function uses a non-reentrant model
  3433 ;;
  3434                           
  3435                           
  3436                           ;psect for function _ADC_Read
  3437  0F5D                     _ADC_Read:
  3438                           
  3439                           ;incstack = 0
  3440                           ; Regs used in _ADC_Read: [wreg+status,2+status,0]
  3441                           ;ADC_Read@channel stored from wreg
  3442  0F5D  00F4               	movwf	ADC_Read@channel
  3443  0F5E                     l1565:
  3444                           
  3445                           ;newmain.c: 43: unsigned int ADC_Read(unsigned char channel);newmain.c: 44: {;newmain.c:
      +                           45:   ADCON0 &= 0x11000101;
  3446  0F5E  3001               	movlw	1
  3447  0F5F  00F2               	movwf	??_ADC_Read
  3448  0F60  0872               	movf	??_ADC_Read,w
  3449  0F61  1283               	bcf	3,5	;RP0=0, select bank0
  3450  0F62  1303               	bcf	3,6	;RP1=0, select bank0
  3451  0F63  059F               	andwf	31,f	;volatile
  3452                           
  3453                           ;newmain.c: 46:   ADCON0 |= channel<<3;
  3454  0F64  0874               	movf	ADC_Read@channel,w	;volatile
  3455  0F65  00F2               	movwf	??_ADC_Read
  3456  0F66  3002               	movlw	2
  3457  0F67                     u2215:
  3458  0F67  1003               	clrc
  3459  0F68  0DF2               	rlf	??_ADC_Read,f
  3460  0F69  3EFF               	addlw	-1
  3461  0F6A  1D03               	skipz
  3462  0F6B  2F67               	goto	u2215
  3463  0F6C  1003               	clrc
  3464  0F6D  0D72               	rlf	??_ADC_Read,w
  3465  0F6E  00F3               	movwf	??_ADC_Read+1
  3466  0F6F  0873               	movf	??_ADC_Read+1,w
  3467  0F70  049F               	iorwf	31,f	;volatile
  3468  0F71                     l1567:
  3469                           
  3470                           ;newmain.c: 47:   _delay((unsigned long)((2)*(20000000/4000.0)));
  3471  0F71  300D               	movlw	13
  3472  0F72  00F3               	movwf	??_ADC_Read+1
  3473  0F73  30FB               	movlw	251
  3474  0F74  00F2               	movwf	??_ADC_Read
  3475  0F75                     u2247:
  3476  0F75  0BF2               	decfsz	??_ADC_Read,f
  3477  0F76  2F75               	goto	u2247
  3478  0F77  0BF3               	decfsz	??_ADC_Read+1,f
  3479  0F78  2F75               	goto	u2247
  3480  0F79  2F7A               	nop2
  3481  0F7A                     l1569:
  3482                           
  3483                           ;newmain.c: 48:   GO_nDONE = 1;
  3484  0F7A  1283               	bcf	3,5	;RP0=0, select bank0
  3485  0F7B  1303               	bcf	3,6	;RP1=0, select bank0
  3486  0F7C  151F               	bsf	31,2	;volatile
  3487  0F7D                     l53:	
  3488                           ;newmain.c: 49:   while(GO_nDONE);
  3489                           
  3490  0F7D  191F               	btfsc	31,2	;volatile
  3491  0F7E  2F80               	goto	u2221
  3492  0F7F  2F81               	goto	u2220
  3493  0F80                     u2221:
  3494  0F80  2F7D               	goto	l53
  3495  0F81                     u2220:
  3496  0F81                     l1571:
  3497                           
  3498                           ;newmain.c: 50:   return ((ADRESH<<8)+ADRESL);
  3499  0F81  081E               	movf	30,w	;volatile
  3500  0F82  00F1               	movwf	?_ADC_Read+1
  3501  0F83  1683               	bsf	3,5	;RP0=1, select bank1
  3502  0F84  1303               	bcf	3,6	;RP1=0, select bank1
  3503  0F85  081E               	movf	30,w	;volatile
  3504  0F86  00F0               	movwf	?_ADC_Read
  3505  0F87                     l56:
  3506  0F87  0008               	return
  3507  0F88                     __end_of_ADC_Read:
  3508                           
  3509                           	psect	text10
  3510  000A                     __ptext10:	
  3511 ;; *************** function _ADC_Initialize *****************
  3512 ;; Defined at:
  3513 ;;		line 38 in file "newmain.c"
  3514 ;; Parameters:    Size  Location     Type
  3515 ;;		None
  3516 ;; Auto vars:     Size  Location     Type
  3517 ;;		None
  3518 ;; Return value:  Size  Location     Type
  3519 ;;                  1    wreg      void 
  3520 ;; Registers used:
  3521 ;;		wreg
  3522 ;; Tracked objects:
  3523 ;;		On entry : 0/0
  3524 ;;		On exit  : 0/0
  3525 ;;		Unchanged: 0/0
  3526 ;; Data sizes:     COMMON   BANK0   BANK1   BANK3   BANK2
  3527 ;;      Params:         0       0       0       0       0
  3528 ;;      Locals:         0       0       0       0       0
  3529 ;;      Temps:          0       0       0       0       0
  3530 ;;      Totals:         0       0       0       0       0
  3531 ;;Total ram usage:        0 bytes
  3532 ;; Hardware stack levels used: 1
  3533 ;; This function calls:
  3534 ;;		Nothing
  3535 ;; This function is called by:
  3536 ;;		_main
  3537 ;; This function uses a non-reentrant model
  3538 ;;
  3539                           
  3540                           
  3541                           ;psect for function _ADC_Initialize
  3542  000A                     _ADC_Initialize:
  3543  000A                     l1563:	
  3544                           ;incstack = 0
  3545                           ; Regs used in _ADC_Initialize: [wreg]
  3546                           
  3547                           
  3548                           ;newmain.c: 40:   ADCON0 = 0b01000001;
  3549  000A  3041               	movlw	65
  3550  000B  1283               	bcf	3,5	;RP0=0, select bank0
  3551  000C  1303               	bcf	3,6	;RP1=0, select bank0
  3552  000D  009F               	movwf	31	;volatile
  3553                           
  3554                           ;newmain.c: 41:   ADCON1 = 0b11000000;
  3555  000E  30C0               	movlw	192
  3556  000F  1683               	bsf	3,5	;RP0=1, select bank1
  3557  0010  1303               	bcf	3,6	;RP1=0, select bank1
  3558  0011  009F               	movwf	31	;volatile
  3559  0012                     l50:
  3560  0012  0008               	return
  3561  0013                     __end_of_ADC_Initialize:
  3562  007E                     btemp	set	126	;btemp
  3563  007E                     wtemp0	set	126
  3564                           
  3565                           	psect	config
  3566                           
  3567                           ;Config register CONFIG @ 0x2007
  3568                           ;	Oscillator Selection bits
  3569                           ;	FOSC = HS, HS oscillator
  3570                           ;	Watchdog Timer Enable bit
  3571                           ;	WDTE = OFF, WDT disabled
  3572                           ;	Power-up Timer Enable bit
  3573                           ;	PWRTE = ON, PWRT enabled
  3574                           ;	Brown-out Reset Enable bit
  3575                           ;	BOREN = OFF, BOR disabled
  3576                           ;	Low-Voltage (Single-Supply) In-Circuit Serial Programming Enable bit
  3577                           ;	LVP = ON, RB3/PGM pin has PGM function; low-voltage programming enabled
  3578                           ;	Data EEPROM Memory Code Protection bit
  3579                           ;	CPD = OFF, Data EEPROM code protection off
  3580                           ;	Flash Program Memory Write Enable bits
  3581                           ;	WRT = OFF, Write protection off; all program memory may be written to by EECON control
  3582                           ;	In-Circuit Debugger Mode bit
  3583                           ;	DEBUG = 0x1, unprogrammed default
  3584                           ;	Flash Program Memory Code Protection bit
  3585                           ;	CP = OFF, Code protection off
  3586  2007                     	org	8199
  3587  2007  3FB2               	dw	16306

Data Sizes:
    Strings     0
    Constant    0
    Data        4
    BSS         0
    Persistent  0
    Stack       0

Auto Spaces:
    Space          Size  Autos    Used
    COMMON           14     13      13
    BANK0            80     79      79
    BANK1            80     11      15
    BANK3            96      0       0
    BANK2            96      0       0

Pointer List with Targets:

    None.

Critical Paths under _main in COMMON

    _main->_PWM_Initialize
    _PWM_Initialize->___aldiv
    _PWM_Duty->___xxtofl
    ___xxtofl->___aldiv
    ___fltol->___xxtofl
    ___flmul->___xxtofl
    ___fldiv->___xxtofl

Critical Paths under _main in BANK0

    _PWM_Initialize->___aldiv
    _PWM_Duty->___fltol
    ___xxtofl->___aldiv
    ___fltol->___flmul
    ___flmul->___fldiv
    ___fldiv->___xxtofl

Critical Paths under _main in BANK1

    _main->_PWM_Duty

Critical Paths under _main in BANK3

    None.

Critical Paths under _main in BANK2

    None.

Call Graph Tables:

 ---------------------------------------------------------------------------------
 (Depth) Function   	        Calls       Base Space   Used Autos Params    Refs
 ---------------------------------------------------------------------------------
 (0) _main                                                 5     5      0    5887
                                              6 BANK1      5     5      0
                     _ADC_Initialize
                           _ADC_Read
                           _PWM_Duty
                     _PWM_Initialize
 ---------------------------------------------------------------------------------
 (1) _PWM_Initialize                                       4     4      0     604
                                              9 COMMON     4     4      0
                            ___aldiv
 ---------------------------------------------------------------------------------
 (1) _PWM_Duty                                             6     4      2    5238
                                              0 BANK1      6     4      2
                            ___aldiv
                            ___fldiv
                            ___flmul
                            ___fltol
                           ___xxtofl
 ---------------------------------------------------------------------------------
 (2) ___xxtofl                                            14    10      4     474
                                              9 COMMON     4     4      0
                                              6 BANK0     10     6      4
                            ___aldiv (ARG)
 ---------------------------------------------------------------------------------
 (2) ___fltol                                             11     7      4     305
                                             68 BANK0     11     7      4
                            ___aldiv (ARG)
                            ___fldiv (ARG)
                            ___flmul (ARG)
                           ___xxtofl (ARG)
 ---------------------------------------------------------------------------------
 (2) ___flmul                                             26    18      8    2417
                                             42 BANK0     26    18      8
                          __Umul8_16
                            ___aldiv (ARG)
                            ___fldiv (ARG)
                           ___xxtofl (ARG)
 ---------------------------------------------------------------------------------
 (3) __Umul8_16                                            9     7      2     799
                                              0 COMMON     9     7      2
 ---------------------------------------------------------------------------------
 (2) ___fldiv                                             26    18      8    1273
                                             16 BANK0     26    18      8
                           ___xxtofl (ARG)
 ---------------------------------------------------------------------------------
 (2) ___aldiv                                             15     7      8     604
                                              0 COMMON     9     1      8
                                              0 BANK0      6     6      0
 ---------------------------------------------------------------------------------
 (1) _ADC_Read                                             5     3      2      22
                                              0 COMMON     5     3      2
 ---------------------------------------------------------------------------------
 (1) _ADC_Initialize                                       0     0      0       0
 ---------------------------------------------------------------------------------
 Estimated maximum stack depth 3
 ---------------------------------------------------------------------------------

 Call Graph Graphs:

 _main (ROOT)
   _ADC_Initialize
   _ADC_Read
   _PWM_Duty
     ___aldiv
     ___fldiv
       ___xxtofl (ARG)
         ___aldiv (ARG)
     ___flmul
       __Umul8_16
       ___aldiv (ARG)
       ___fldiv (ARG)
       ___xxtofl (ARG)
     ___fltol
       ___aldiv (ARG)
       ___fldiv (ARG)
       ___flmul (ARG)
       ___xxtofl (ARG)
     ___xxtofl
   _PWM_Initialize
     ___aldiv

 Address spaces:
Name               Size   Autos  Total    Cost      Usage
BANK3               60      0       0       9        0.0%
BITBANK3            60      0       0       8        0.0%
SFR3                 0      0       0       4        0.0%
BITSFR3              0      0       0       4        0.0%
BANK2               60      0       0      11        0.0%
BITBANK2            60      0       0      10        0.0%
SFR2                 0      0       0       5        0.0%
BITSFR2              0      0       0       5        0.0%
BANK1               50      B       F       7       18.8%
BITBANK1            50      0       0       6        0.0%
SFR1                 0      0       0       2        0.0%
BITSFR1              0      0       0       2        0.0%
BANK0               50     4F      4F       5       98.8%
BITBANK0            50      0       0       4        0.0%
SFR0                 0      0       0       1        0.0%
BITSFR0              0      0       0       1        0.0%
COMMON               E      D       D       1       92.9%
BITCOMMON            E      0       0       0        0.0%
CODE                 0      0       0       0        0.0%
DATA                 0      0      6B      12        0.0%
ABS                  0      0      6B       3        0.0%
NULL                 0      0       0       0        0.0%
STACK                0      0       0       2        0.0%
EEDATA             100      0       0       0        0.0%


Microchip Technology PIC Macro Assembler V2.32 build 20210201212658 
Symbol Table                                                                                   Tue Nov 23 11:29:14 2021

           ___fldiv@aexp 0049             ___fldiv@bexp 0048             ___fldiv@sign 0041  
__size_of_PWM_Initialize 0041                       l50 0012                       l43 0FFF  
                     l53 0F7D                       l47 02A3                       l56 0F87  
    __Umul8_16@word_mpld 0076                      l214 00A3                      l224 012B  
                    l500 0480                      l342 0079                      l335 008E  
                    l520 0464                      l345 008E                      l522 0474  
                    l514 03F2                      l550 07D5                      l544 074D  
                    l538 07E1                      l557 0F4A                      l582 0150  
                    l559 0F5C                      l584 01E7                      l498 0300  
                    l595 01B1                      l596 01BD                      l588 0195  
                    _PR2 0092             ___flmul@aexp 005C             ___flmul@bexp 005D  
           ___flmul@sign 0057             ___flmul@temp 0062             ___flmul@prod 005E  
           ___fltol@exp1 006E                     l1201 0067                     l1131 0F53  
                   l1123 0F37                     l1211 0083                     l1141 0096  
                   l1301 03B5                     l1221 02B6                     l1213 02A4  
                   l1133 0F58                     l1125 0F39                     l1151 00C6  
                   l1143 00A7                     l1303 03BE                     l1311 03D2  
                   l1223 02BB                     l1231 02CB                     l1215 02AB  
                   l1127 0F40                     l1207 006E                     l1161 00F5  
                   l1153 00C9                     l1145 00B2                     l1137 008F  
                   l1313 03D6                     l1305 03C2                     l1241 02E3  
                   l1233 02D3                     l1225 02C0                     l1217 02B1  
                   l1129 0F44                     l1401 04FE                     l1209 007E  
                   l1171 0118                     l1163 0103                     l1155 00D6  
                   l1147 00B6                     l1139 0092                     l1331 0427  
                   l1323 03F7                     l1315 03D7                     l1307 03C3  
                   l1243 02E8                     l1251 02F8                     l1235 02D8  
                   l1227 02C8                     l1219 02B5                     l1411 058C  
                   l1403 050B                     l1173 0123                     l1165 0104  
                   l1157 00DA                     l1149 00BE                     l1341 045B  
                   l1325 03FC                     l1333 042D                     l1317 03DB  
                   l1309 03CC                     l1253 0308                     l1261 0321  
                   l1245 02ED                     l1237 02DE                     l1229 02C9  
                   l1421 05EE                     l1413 05A8                     l1405 0528  
                   l1501 0148                     l1167 010D                     l1159 00E3  
                   l1343 0463                     l1335 043A                     l1327 040A  
                   l1319 03EF                     l1271 0349                     l1263 0326  
                   l1255 0314                     l1247 02F5                     l1239 02E2  
                   l1431 067E                     l1423 060B                     l1415 05B1  
                   l1407 0544                     l1191 0049                     l1183 0029  
                   l1511 0173                     l1503 0158                     l1169 0113  
                   l1345 046A                     l1337 0448                     l1329 040E  
                   l1281 0372                     l1273 0351                     l1257 0318  
                   l1249 02F6                     l1441 0710                     l1433 06AB  
                   l1425 0624                     l1417 05C1                     l1409 0570  
                   l1361 0492                     l1193 004D                     l1185 003E  
                   l1177 0013                     l1521 01A7                     l1513 017A  
                   l1347 046E                     l1339 0457                     l1291 0393  
                   l1283 0376                     l1275 0359                     l1267 032F  
                   l1443 0719                     l1451 072D                     l1435 06D1  
                   l1427 0641                     l1419 05DE                     l1371 04A7  
                   l1363 0493                     l1355 0481                     l1187 003F  
                   l1179 0020                     l1531 01DA                     l1523 01AB  
                   l1515 017E                     l1507 0161                     l1349 0470  
                   l1293 03A1                     l1285 0377                     l1277 035B  
                   l1269 0341                     l1453 0731                     l1445 071D  
                   l1437 06F9                     l1429 066E                     l1381 04BF  
                   l1373 04AF                     l1365 0498                     l1357 0488  
                   l1189 0047                     l1533 01DE                     l1525 01B5  
                   l1517 018C                     l1509 0166                     l1541 0FF5  
                   l1279 0360                     l1287 0380                     l1295 03A5  
                   l1471 0782                     l1463 0752                     l1455 0732  
                   l1447 071E                     l1439 0702                     l1391 04DB  
                   l1383 04C4                     l1375 04B4                     l1367 049D  
                   l1359 048E                     l1199 0055                     l1535 01DF  
                   l1527 01BF                     l1519 019C                     l1551 0FFC  
                   l1543 0FF8                     l1297 03AB                     l1289 0392  
                   l1481 07B9                     l1465 0757                     l1473 0788  
                   l1457 0736                     l1449 0727                     l1393 04E0  
                   l1385 04C9                     l1377 04BA                     l1369 04A5  
                   l1529 01D5                     l1561 0293                     l1553 01E8  
                   l1545 0FF9                     l1563 000A                     l1571 0F81  
                   l1299 03B3                     l1491 07D9                     l1483 07BB  
                   l1475 0795                     l1467 0765                     l1459 074A  
                   l1395 04E5                     l1387 04D1                     l1379 04BE  
                   l1555 01F3                     l1547 0FFA                     l1539 0FBF  
                   l1565 0F5E                     l1485 07C9                     l1477 07A0  
                   l1469 0769                     l1389 04D3                     l1557 0288  
                   l1549 0FFB                     l1581 0F8E                     l1567 0F71  
                   l1487 07CD                     l1479 07AF                     l1399 04EE  
                   l1495 012F                     l1559 0292                     l1583 0F93  
                   l1575 0F88                     l1569 0F7A                     l1489 07CE  
                   l1497 0134                     l1585 0F98                     l1577 0F8B  
                   l1499 0138                     l1587 0FA4                     l1579 0F8D  
                   l1589 0FAD                     u1120 0F44                     u2000 07CD  
                   u1121 0F43                     u2001 07CC                     u1210 00F5  
                   u2010 0134                     u1211 00F4                     u2011 0133  
                   u1140 0F58                     u1300 0066                     u2100 01B1  
                   u2020 0138                     u1205 00DC                     u1141 0F57  
                   u1301 0065                     u2101 01B0                     u2021 0137  
                   u1230 0113                     u1150 0096                     u1310 006D  
                   u2110 01B5                     u2030 0158                     u1231 0112  
                   u1215 00F1                     u1151 0095                     u1135 0F4B  
                   u1311 006C                     u2111 01B4                     u2031 0157  
                   u1240 0118                     u1160 00A7                     u1400 02ED  
                   u2120 01CA                     u1241 0117                     u1225 0105  
                   u1161 00A6                     u1401 02EC                     u1170 00C6  
                   u1410 0308                     u1330 007E                     u1250 0020  
                   u2130 01DA                     u2050 0179                     u1171 00C5  
                   u1411 0307                     u1331 007D                     u1251 001F  
                   u2131 01D9                     u2051 0178                     u2220 0F81  
                   u1500 03B3                     u1420 0326                     u1340 0083  
                   u1260 0037                     u2140 01DE                     u2204 0292  
                   u2221 0F80                     u1501 03B2                     u1421 0325  
                   u1341 0082                     u1325 0070                     u2141 01DD  
                   u2125 01C5                     u2045 016B                     u1190 00DA  
                   u1430 0360                     u1350 02B5                     u1270 004D  
                   u2070 019B                     u2150 0FCF                     u2215 0F67  
                   u1191 00D9                     u1431 035F                     u1351 02B4  
                   u1271 004C                     u2071 019A                     u1600 041D  
                   u1520 03C2                     u1360 02BB                     u1280 0054  
                   u2160 0FD8                     u1185 00CB                     u1521 03C1  
                   u1361 02BA                     u1281 0053                     u1265 0032  
                   u2065 018D                     u1610 043A                     u1370 02C0  
                   u2090 01AB                     u2170 01F3                     u1611 0439  
                   u1515 03B7                     u1371 02BF                     u2091 01AA  
                   u2171 01F2                     u2155 0FCA                     u1620 0457  
                   u1540 03D6                     u1460 0376                     u1380 02E2  
                   u1700 04E0                     u2180 023E                     u1621 0456  
                   u1605 0418                     u1541 03D5                     u1461 0375  
                   u1445 0362                     u1381 02E1                     u1701 04DF  
                   u2085 01A0                     u2165 0FD3                     u2237 0FB5  
                   u1630 046E                     u1550 03DB                     u1390 02E8  
                   u1710 04E5                     u2190 028F                     u2247 0F75  
                   u1631 046D                     u1615 0436                     u1551 03DA  
                   u1535 03C5                     u1455 036B                     u1391 02E7  
                   u1711 04E4                     u1295 0056                     u2191 028B  
                   u1560 03EF                     u1480 0392                     u1640 0492  
                   u1625 0453                     u1561 03EE                     u1481 0391  
                   u1801 0633                     u1721 0536                     u1641 0491  
                   u2185 0239                     u1570 03F6                     u1490 03AB  
                   u1802 063A                     u1722 053D                     u1650 0498  
                   u1571 03F5                     u1491 03AA                     u1475 0379  
                   u1811 0660                     u1803 0641                     u1731 0552  
                   u1723 0544                     u1651 0497                     u1580 03FC  
                   u1812 0667                     u1732 0559                     u1660 049D  
                   u1581 03FB                     u1485 038E                     u1821 068D  
                   u1813 066E                     u1741 057E                     u1733 0560  
                   u1661 049C                     u1590 040E                     u1910 0731  
                   u1830 06B7                     u1822 0694                     u1742 0585  
                   u1670 04BE                     u1591 040D                     u1911 0730  
                   u1823 069B                     u1751 059A                     u1743 058C  
                   u1671 04BD                     u1920 0736                     u1752 05A1  
                   u1680 04C4                     u1921 0735                     u1905 0720  
                   u1841 06C3                     u1753 05A8                     u1681 04C3  
                   u1930 074A                     u1850 06DF                     u1842 06CA  
                   u1690 04C9                     u1931 0749                     u1843 06D1  
                   u1835 06B2                     u1771 05D0                     u1691 04C8  
                   u1940 0751                     u1772 05D7                     u1941 0750  
                   u1861 06EB                     u1781 05FD                     u1773 05DE  
                   u1765 05AA                     u1950 0757                     u1862 06F2  
                   u1782 0604                     u1951 0756                     u1863 06F9  
                   u1855 06DA                     u1783 060B                     u1960 0769  
                   u1961 0768                     u1970 0778                     u1890 071D  
                   u1891 071C                     u1875 06FB                     u1795 060D  
                   u1980 0795                     u1981 0794                     u1885 0712  
                   u1990 07AF                     u1991 07AE                     u1975 0773  
                   u1985 0791                     u1995 07AB                     _main 0F88  
                   btemp 007E         __end_of_ADC_Read 0F88                     start 0000  
        ___fldiv@new_exp 0042            ___fltol@sign1 006D          __end_of___aldiv 012C  
                  ?_main 0070                    _CCP1X 00BD          __end_of___fldiv 0481  
                  _CCP1Y 00BC          __end_of___flmul 07E2          __end_of___fltol 008F  
                  _TRISA 0085                    _TRISC 0087                    _TRISD 0088  
       __end_of_PWM_Duty 02A4                    status 0003                    wtemp0 007E  
          main@adc_value 00A9          __initialization 07E2             __end_of_main 0FBF  
                 ??_main 00A6                   _ADCON0 001F                   _ADCON1 009F  
                 _CCP1M2 00BA                   _CCP1M3 00BB                   _ADRESH 001E  
                 _ADRESL 009E                   _CCPR1L 0015                   _TMR2ON 0092  
                 _TRISC2 043A         __end_of___xxtofl 01E8                ??___aldiv 0078  
              ??___fldiv 0038                ??___flmul 0052           _PWM_Initialize 0FBF  
              ??___fltol 0068          ADC_Read@channel 0074       __size_of__Umul8_16 0027  
              ?_ADC_Read 0070             PWM_Duty@duty 00A0             ___xxtofl@arg 002C  
           ___xxtofl@exp 002B             ___xxtofl@val 0026  __end_of__initialization 07FC  
             ___fltol@f1 0064   __end_of_PWM_Initialize 1000           __pcstackCOMMON 0070  
           __pidataBANK1 0006                ?_PWM_Duty 00A0               ??_ADC_Read 0072  
      __end_of__Umul8_16 0F5D          ?_PWM_Initialize 0070               __pmaintext 0F88  
             ??_PWM_Duty 00A2  __size_of_ADC_Initialize 0009                  _T2CKPS0 0090  
                _T2CKPS1 0091                ?___xxtofl 0026                  ___aldiv 008F  
                ___fldiv 02A4                  ___flmul 0481                  ___fltol 0013  
                __ptext1 0FBF                  __ptext2 01E8                  __ptext3 012C  
                __ptext4 0013                  __ptext5 0481                  __ptext6 0F36  
                __ptext7 02A4                  __ptext8 008F                  __ptext9 0F5D  
             ??___xxtofl 0079         ___aldiv@dividend 0074     end_of_initialization 07FC  
       ___aldiv@quotient 0022            ___xxtofl@sign 002A              ___fldiv@grs 0044  
            ___fldiv@rem 003D        __size_of_ADC_Read 002B              ___flmul@grs 0058  
         _ADC_Initialize 000A      start_initialization 07E2        __size_of_PWM_Duty 00BC  
       ??_PWM_Initialize 0079   __end_of_ADC_Initialize 0013                __Umul8_16 0F36  
            __pdataBANK1 00AB                ___fldiv@a 0030                ___fldiv@b 0034  
              ___flmul@a 004E                ___flmul@b 004A                ___latbits 0002  
          __pcstackBANK0 0020            __pcstackBANK1 00A0        __size_of___xxtofl 00BC  
               ?___aldiv 0070                 ?___fldiv 0030                 ?___flmul 004A  
               ?___fltol 0064               ?__Umul8_16 0070          ?_ADC_Initialize 0070  
               _ADC_Read 0F5D          ___aldiv@divisor 0070          ___aldiv@counter 0020  
               _GO_nDONE 00FA                 _PWM_Duty 01E8                 _PWM_freq 00AB  
            ??__Umul8_16 0072         __size_of___aldiv 009D         __size_of___fldiv 01DD  
       __size_of___flmul 0361         __size_of___fltol 007C                 ___xxtofl 012C  
               __ptext10 000A            __size_of_main 0037         ??_ADC_Initialize 0070  
 __Umul8_16@multiplicand 0070             ___aldiv@sign 0021     __Umul8_16@multiplier 0078  
      __Umul8_16@product 0074  
